                 U abort@GLIBC_2.2.5
00000000000e14f0 T add_finalizer
00000000000e08f0 T add_phantom_candidate
00000000000e0760 T add_soft_candidate
00000000000e05b0 T add_weak_candidate
00000000000df600 T alloc
                 U bcmp@GLIBC_2.2.5
00000000000de380 T bind_mutator
                 U calloc@GLIBC_2.2.5
                 U ceil@GLIBC_2.2.5
                 U clock_gettime@GLIBC_2.17
                 U close@GLIBC_2.2.5
00000000001c4400 b completed.0
                 w __cxa_finalize@GLIBC_2.2.5
                 w __cxa_thread_atexit_impl@GLIBC_2.18
000000000002c860 t deregister_tm_clones
00000000000df510 T destroy_mutator
                 U dl_iterate_phdr@GLIBC_2.2.5
000000000002c8d0 t __do_global_dtors_aux
00000000001b1a10 d __do_global_dtors_aux_fini_array_entry
00000000001c4000 d __dso_handle
00000000001c43c0 d DW.ref.rust_eh_personality
00000000001c3b18 d _DYNAMIC
                 U __environ@GLIBC_2.2.5
                 U environ@GLIBC_2.2.5
                 U __errno_location@GLIBC_2.2.5
00000000000e14b0 T executable
00000000001705a8 t _fini
00000000000df5e0 T flush_mutator
000000000002c910 t frame_dummy
00000000001b1a08 d __frame_dummy_init_array_entry
00000000001a7c50 r __FRAME_END__
00000000000e0410 T free_bytes
                 U free@GLIBC_2.2.5
                 U fstat64@GLIBC_2.33
00000000001aa704 r GCC_except_table1012
00000000001aa714 r GCC_except_table1024
00000000001aa770 r GCC_except_table1025
00000000001aa78c r GCC_except_table1026
00000000001aa7a4 r GCC_except_table1028
00000000001aa968 r GCC_except_table1033
00000000001aa978 r GCC_except_table1041
00000000001aa988 r GCC_except_table1069
00000000001aa998 r GCC_except_table1073
00000000001aa9a8 r GCC_except_table1082
00000000001aa9d0 r GCC_except_table1097
00000000001aa9e4 r GCC_except_table1098
00000000001a7ca8 r GCC_except_table11
00000000001aaa24 r GCC_except_table1100
00000000001aaa3c r GCC_except_table1101
00000000001aaa54 r GCC_except_table1102
00000000001aaa70 r GCC_except_table1114
00000000001aaa80 r GCC_except_table1115
00000000001aaa90 r GCC_except_table1122
00000000001aaaa4 r GCC_except_table1133
00000000001aab08 r GCC_except_table1150
00000000001aab20 r GCC_except_table1161
00000000001aab3c r GCC_except_table1182
00000000001aab4c r GCC_except_table1184
00000000001aab60 r GCC_except_table1185
00000000001aab98 r GCC_except_table1187
00000000001aaba4 r GCC_except_table1188
00000000001aabb0 r GCC_except_table1199
00000000001aabe8 r GCC_except_table1210
00000000001aabfc r GCC_except_table1212
00000000001aac08 r GCC_except_table1229
00000000001aac6c r GCC_except_table1244
00000000001aac84 r GCC_except_table1253
00000000001aac98 r GCC_except_table1255
00000000001aacac r GCC_except_table1257
00000000001aacc0 r GCC_except_table1259
00000000001aacd4 r GCC_except_table1261
00000000001aace8 r GCC_except_table1263
00000000001aacfc r GCC_except_table1265
00000000001aad10 r GCC_except_table1267
00000000001aad24 r GCC_except_table1269
00000000001aad38 r GCC_except_table1271
00000000001aad4c r GCC_except_table1274
00000000001aad54 r GCC_except_table1277
00000000001aad74 r GCC_except_table1278
00000000001aadc0 r GCC_except_table1279
00000000001aadf8 r GCC_except_table1303
00000000001aae18 r GCC_except_table1306
00000000001aae6c r GCC_except_table1314
00000000001aaea0 r GCC_except_table1337
00000000001aaeb0 r GCC_except_table1339
00000000001aaec4 r GCC_except_table1340
00000000001aaed8 r GCC_except_table1341
00000000001aaeec r GCC_except_table1342
00000000001aaf04 r GCC_except_table1343
00000000001aaf34 r GCC_except_table1344
00000000001aaf58 r GCC_except_table1346
00000000001aaf98 r GCC_except_table1347
00000000001aafa8 r GCC_except_table1348
00000000001aafdc r GCC_except_table1349
00000000001aaffc r GCC_except_table1350
00000000001ab00c r GCC_except_table1352
00000000001ab054 r GCC_except_table1355
00000000001ab068 r GCC_except_table1358
00000000001ab078 r GCC_except_table1359
00000000001ab08c r GCC_except_table1371
00000000001ab0a8 r GCC_except_table1372
00000000001ab0dc r GCC_except_table1374
00000000001ab0f0 r GCC_except_table1376
00000000001ab104 r GCC_except_table1377
00000000001ab110 r GCC_except_table1397
00000000001ab128 r GCC_except_table1410
00000000001ab168 r GCC_except_table1422
00000000001ab178 r GCC_except_table1424
00000000001ab18c r GCC_except_table1443
00000000001ab1f0 r GCC_except_table1456
00000000001ab208 r GCC_except_table1465
00000000001ab234 r GCC_except_table1466
00000000001ab248 r GCC_except_table1485
00000000001ab260 r GCC_except_table1498
00000000001ab2ac r GCC_except_table1500
00000000001ab2c0 r GCC_except_table1503
00000000001ab2d8 r GCC_except_table1504
00000000001ab2f0 r GCC_except_table1509
00000000001ab2fc r GCC_except_table1516
00000000001ab308 r GCC_except_table1517
00000000001ab328 r GCC_except_table1518
00000000001ab338 r GCC_except_table1525
00000000001ab348 r GCC_except_table1526
00000000001ab360 r GCC_except_table1528
00000000001ab378 r GCC_except_table1529
00000000001ab388 r GCC_except_table1530
00000000001ab3ac r GCC_except_table1531
00000000001ab3bc r GCC_except_table1532
00000000001ab3cc r GCC_except_table1533
00000000001ab3dc r GCC_except_table1534
00000000001ab3fc r GCC_except_table1535
00000000001ab410 r GCC_except_table1537
00000000001ab41c r GCC_except_table1538
00000000001ab438 r GCC_except_table1539
00000000001ab478 r GCC_except_table1540
00000000001ab48c r GCC_except_table1553
00000000001ab4f0 r GCC_except_table1565
00000000001ab508 r GCC_except_table1574
00000000001ab538 r GCC_except_table1575
00000000001ab558 r GCC_except_table1577
00000000001ab564 r GCC_except_table1579
00000000001ab570 r GCC_except_table1580
00000000001ab57c r GCC_except_table1581
00000000001ab58c r GCC_except_table1583
00000000001ab59c r GCC_except_table1584
00000000001ab5ac r GCC_except_table1587
00000000001ab5c0 r GCC_except_table1589
00000000001ab610 r GCC_except_table1590
00000000001ab698 r GCC_except_table1591
00000000001ab6ac r GCC_except_table1596
00000000001ab6e0 r GCC_except_table1597
00000000001ab6f0 r GCC_except_table1609
00000000001ab774 r GCC_except_table1610
00000000001ab7c8 r GCC_except_table1612
00000000001ab814 r GCC_except_table1613
00000000001ab868 r GCC_except_table1615
00000000001ab8bc r GCC_except_table1617
00000000001ab910 r GCC_except_table1619
00000000001ab964 r GCC_except_table1621
00000000001ab9b8 r GCC_except_table1623
00000000001aba0c r GCC_except_table1625
00000000001aba84 r GCC_except_table1626
00000000001abb20 r GCC_except_table1639
00000000001abb30 r GCC_except_table1640
00000000001abb40 r GCC_except_table1644
00000000001abd48 r GCC_except_table1649
00000000001abd54 r GCC_except_table1654
00000000001abd60 r GCC_except_table1657
00000000001abd7c r GCC_except_table1695
00000000001abda4 r GCC_except_table1698
00000000001abdcc r GCC_except_table1701
00000000001abdec r GCC_except_table1704
00000000001abe14 r GCC_except_table1707
00000000001abe3c r GCC_except_table1711
00000000001abe64 r GCC_except_table1714
00000000001abe8c r GCC_except_table1717
00000000001abeb4 r GCC_except_table1720
00000000001abedc r GCC_except_table1723
00000000001abf04 r GCC_except_table1726
00000000001abf2c r GCC_except_table1730
00000000001abf3c r GCC_except_table1736
00000000001abfa4 r GCC_except_table1747
00000000001abfd4 r GCC_except_table1763
00000000001abfe8 r GCC_except_table1764
00000000001ac034 r GCC_except_table1782
00000000001ac048 r GCC_except_table1784
00000000001ac05c r GCC_except_table1788
00000000001ac07c r GCC_except_table1789
00000000001ac12c r GCC_except_table1790
00000000001ac13c r GCC_except_table1797
00000000001ac148 r GCC_except_table1798
00000000001ac154 r GCC_except_table1799
00000000001ac164 r GCC_except_table1800
00000000001ac17c r GCC_except_table1801
00000000001ac198 r GCC_except_table1802
00000000001ac1a4 r GCC_except_table1803
00000000001ac1b0 r GCC_except_table1804
00000000001ac20c r GCC_except_table1811
00000000001ac22c r GCC_except_table1812
00000000001ac24c r GCC_except_table1813
00000000001ac26c r GCC_except_table1815
00000000001ac2ac r GCC_except_table1818
00000000001ac2d4 r GCC_except_table1819
00000000001ac2fc r GCC_except_table1825
00000000001ac31c r GCC_except_table1826
00000000001ac330 r GCC_except_table1827
00000000001ac344 r GCC_except_table1828
00000000001ac378 r GCC_except_table1829
00000000001ac38c r GCC_except_table1830
00000000001ac3a0 r GCC_except_table1832
00000000001ac3ac r GCC_except_table1840
00000000001ac3f0 r GCC_except_table1846
00000000001ac434 r GCC_except_table1854
00000000001ac478 r GCC_except_table1861
00000000001ac4bc r GCC_except_table1875
00000000001ac500 r GCC_except_table1877
00000000001ac544 r GCC_except_table1891
00000000001ac588 r GCC_except_table1898
00000000001ac594 r GCC_except_table1899
00000000001ac5b0 r GCC_except_table1900
00000000001ac6a0 r GCC_except_table1901
00000000001ac6b8 r GCC_except_table1902
00000000001ac7cc r GCC_except_table1905
00000000001ac7e4 r GCC_except_table1909
00000000001ac800 r GCC_except_table1910
00000000001ac80c r GCC_except_table1911
00000000001ac848 r GCC_except_table1912
00000000001ac854 r GCC_except_table1914
00000000001ac88c r GCC_except_table1926
00000000001ac8a4 r GCC_except_table1930
00000000001ac8b8 r GCC_except_table1948
00000000001ac8ec r GCC_except_table1950
00000000001ac920 r GCC_except_table1951
00000000001ac954 r GCC_except_table1952
00000000001ac988 r GCC_except_table1953
00000000001ac9bc r GCC_except_table1954
00000000001ac9f0 r GCC_except_table1955
00000000001aca24 r GCC_except_table1956
00000000001aca58 r GCC_except_table1957
00000000001aca8c r GCC_except_table1958
00000000001acac0 r GCC_except_table1959
00000000001a7cc0 r GCC_except_table20
00000000001acaf4 r GCC_except_table2099
00000000001acb4c r GCC_except_table2100
00000000001acb60 r GCC_except_table2110
00000000001acb70 r GCC_except_table2111
00000000001acbf8 r GCC_except_table2135
00000000001acc08 r GCC_except_table2136
00000000001acc20 r GCC_except_table2141
00000000001acce4 r GCC_except_table2142
00000000001acd6c r GCC_except_table2147
00000000001acd90 r GCC_except_table2152
00000000001acdf4 r GCC_except_table2153
00000000001ace0c r GCC_except_table2160
00000000001ace14 r GCC_except_table2161
00000000001ace20 r GCC_except_table2172
00000000001ace40 r GCC_except_table2178
00000000001ace58 r GCC_except_table2179
00000000001acf04 r GCC_except_table2180
00000000001acf38 r GCC_except_table2181
00000000001acf48 r GCC_except_table2182
00000000001acf74 r GCC_except_table2183
00000000001acfb0 r GCC_except_table2184
00000000001acfbc r GCC_except_table2185
00000000001acfd4 r GCC_except_table2186
00000000001ad004 r GCC_except_table2189
00000000001ad010 r GCC_except_table2195
00000000001ad128 r GCC_except_table2196
00000000001ad144 r GCC_except_table2197
00000000001ad160 r GCC_except_table2199
00000000001ad1ac r GCC_except_table2200
00000000001ad1d4 r GCC_except_table2201
00000000001ad1e0 r GCC_except_table2203
00000000001ad1f0 r GCC_except_table2204
00000000001ad270 r GCC_except_table2205
00000000001ad2b4 r GCC_except_table2208
00000000001ad2d4 r GCC_except_table2209
00000000001ad30c r GCC_except_table2210
00000000001ad338 r GCC_except_table2220
00000000001ad350 r GCC_except_table2224
00000000001ad378 r GCC_except_table2227
00000000001ad388 r GCC_except_table2237
00000000001ad440 r GCC_except_table2238
00000000001ad450 r GCC_except_table2248
00000000001ad470 r GCC_except_table2249
00000000001ad4a0 r GCC_except_table2250
00000000001ad4ac r GCC_except_table2252
00000000001ad4c0 r GCC_except_table2259
00000000001ad4d8 r GCC_except_table2262
00000000001ad4ec r GCC_except_table2264
00000000001ad534 r GCC_except_table2265
00000000001ad57c r GCC_except_table2267
00000000001ad58c r GCC_except_table2272
00000000001ad5a4 r GCC_except_table2288
00000000001ad5b8 r GCC_except_table2289
00000000001ad5d4 r GCC_except_table2292
00000000001ad5e8 r GCC_except_table2296
00000000001ad5f4 r GCC_except_table2297
00000000001ad604 r GCC_except_table2298
00000000001ad63c r GCC_except_table2299
00000000001ad668 r GCC_except_table2300
00000000001ad68c r GCC_except_table2301
00000000001ad6b0 r GCC_except_table2302
00000000001ad6c4 r GCC_except_table2303
00000000001ad6d4 r GCC_except_table2304
00000000001ad6e0 r GCC_except_table2305
00000000001ad6ec r GCC_except_table2306
00000000001ad718 r GCC_except_table2307
00000000001ad754 r GCC_except_table2308
00000000001ad760 r GCC_except_table2309
00000000001ad76c r GCC_except_table2310
00000000001ad780 r GCC_except_table2311
00000000001ad790 r GCC_except_table2312
00000000001ad7a4 r GCC_except_table2315
00000000001ad7cc r GCC_except_table2316
00000000001ad7e4 r GCC_except_table2318
00000000001ad7fc r GCC_except_table2319
00000000001a84f4 r GCC_except_table232
00000000001ad8d8 r GCC_except_table2328
00000000001a851c r GCC_except_table233
00000000001ad8f8 r GCC_except_table2332
00000000001ad960 r GCC_except_table2334
00000000001ad98c r GCC_except_table2335
00000000001ad9ac r GCC_except_table2340
00000000001ada34 r GCC_except_table2343
00000000001ada5c r GCC_except_table2345
00000000001ada6c r GCC_except_table2346
00000000001ada7c r GCC_except_table2347
00000000001ada90 r GCC_except_table2349
00000000001adfc4 r GCC_except_table2350
00000000001adffc r GCC_except_table2351
00000000001ae034 r GCC_except_table2352
00000000001ae048 r GCC_except_table2356
00000000001ae068 r GCC_except_table2359
00000000001ae078 r GCC_except_table2363
00000000001ae090 r GCC_except_table2365
00000000001ae09c r GCC_except_table2366
00000000001ae0c0 r GCC_except_table2367
00000000001ae0ec r GCC_except_table2368
00000000001a8530 r GCC_except_table237
00000000001ae100 r GCC_except_table2370
00000000001ae10c r GCC_except_table2371
00000000001ae1ac r GCC_except_table2372
00000000001ae1e0 r GCC_except_table2374
00000000001ae26c r GCC_except_table2375
00000000001ae2a0 r GCC_except_table2376
00000000001ae2e4 r GCC_except_table2380
00000000001ae33c r GCC_except_table2381
00000000001ae3fc r GCC_except_table2382
00000000001ae440 r GCC_except_table2383
00000000001ae4b0 r GCC_except_table2384
00000000001ae4f8 r GCC_except_table2385
00000000001ae550 r GCC_except_table2386
00000000001ae564 r GCC_except_table2387
00000000001a8544 r GCC_except_table239
00000000001ae58c r GCC_except_table2391
00000000001ae598 r GCC_except_table2393
00000000001ae5bc r GCC_except_table2394
00000000001ae618 r GCC_except_table2396
00000000001ae640 r GCC_except_table2397
00000000001ae684 r GCC_except_table2399
00000000001a7d24 r GCC_except_table24
00000000001ae698 r GCC_except_table2400
00000000001ae6cc r GCC_except_table2401
00000000001ae6f0 r GCC_except_table2402
00000000001ae6fc r GCC_except_table2403
00000000001ae720 r GCC_except_table2404
00000000001ae730 r GCC_except_table2405
00000000001ae768 r GCC_except_table2406
00000000001ae774 r GCC_except_table2408
00000000001a855c r GCC_except_table241
00000000001ae7a0 r GCC_except_table2412
00000000001ae7cc r GCC_except_table2413
00000000001ae7e0 r GCC_except_table2414
00000000001ae7ec r GCC_except_table2415
00000000001ae7f8 r GCC_except_table2417
00000000001ae818 r GCC_except_table2418
00000000001ae840 r GCC_except_table2419
00000000001ae864 r GCC_except_table2423
00000000001ae8cc r GCC_except_table2429
00000000001ae904 r GCC_except_table2430
00000000001ae92c r GCC_except_table2431
00000000001ae93c r GCC_except_table2434
00000000001ae950 r GCC_except_table2435
00000000001ae964 r GCC_except_table2436
00000000001ae988 r GCC_except_table2437
00000000001ae9f4 r GCC_except_table2438
00000000001aea04 r GCC_except_table2439
00000000001a8574 r GCC_except_table244
00000000001aea18 r GCC_except_table2440
00000000001aea24 r GCC_except_table2441
00000000001aea38 r GCC_except_table2442
00000000001aea4c r GCC_except_table2443
00000000001aea9c r GCC_except_table2444
00000000001aeae0 r GCC_except_table2445
00000000001aeaf0 r GCC_except_table2446
00000000001aeafc r GCC_except_table2447
00000000001aeb08 r GCC_except_table2449
00000000001a8588 r GCC_except_table245
00000000001aeb4c r GCC_except_table2450
00000000001aeb5c r GCC_except_table2451
00000000001aeb68 r GCC_except_table2452
00000000001aeb74 r GCC_except_table2453
00000000001aeb98 r GCC_except_table2454
00000000001aeba8 r GCC_except_table2455
00000000001aebe0 r GCC_except_table2456
00000000001a85a0 r GCC_except_table246
00000000001aebec r GCC_except_table2461
00000000001aebf8 r GCC_except_table2462
00000000001aec34 r GCC_except_table2463
00000000001aec68 r GCC_except_table2464
00000000001aec74 r GCC_except_table2471
00000000001aec90 r GCC_except_table2473
00000000001aecb4 r GCC_except_table2474
00000000001aecc4 r GCC_except_table2475
00000000001aecd8 r GCC_except_table2476
00000000001aece4 r GCC_except_table2477
00000000001aed00 r GCC_except_table2479
00000000001a85c0 r GCC_except_table248
00000000001aed50 r GCC_except_table2480
00000000001aed94 r GCC_except_table2481
00000000001aedb0 r GCC_except_table2483
00000000001aedf4 r GCC_except_table2484
00000000001aee04 r GCC_except_table2485
00000000001aee10 r GCC_except_table2486
00000000001aee1c r GCC_except_table2493
00000000001aee44 r GCC_except_table2495
00000000001aeec0 r GCC_except_table2497
00000000001aeef8 r GCC_except_table2499
00000000001aef18 r GCC_except_table2502
00000000001aef38 r GCC_except_table2503
00000000001aef60 r GCC_except_table2508
00000000001aefbc r GCC_except_table2509
00000000001af014 r GCC_except_table2510
00000000001af034 r GCC_except_table2511
00000000001af040 r GCC_except_table2514
00000000001af050 r GCC_except_table2515
00000000001a85ec r GCC_except_table252
00000000001a8608 r GCC_except_table253
00000000001af070 r GCC_except_table2535
00000000001a8628 r GCC_except_table255
00000000001af0a4 r GCC_except_table2560
00000000001af0f4 r GCC_except_table2561
00000000001af138 r GCC_except_table2563
00000000001af154 r GCC_except_table2564
00000000001af220 r GCC_except_table2565
00000000001af244 r GCC_except_table2567
00000000001af250 r GCC_except_table2569
00000000001af25c r GCC_except_table2571
00000000001af270 r GCC_except_table2574
00000000001af2ec r GCC_except_table2575
00000000001af30c r GCC_except_table2576
00000000001af334 r GCC_except_table2577
00000000001af344 r GCC_except_table2578
00000000001af360 r GCC_except_table2579
00000000001af38c r GCC_except_table2580
00000000001af3b0 r GCC_except_table2581
00000000001af3c8 r GCC_except_table2582
00000000001af3e0 r GCC_except_table2583
00000000001af45c r GCC_except_table2584
00000000001af4a8 r GCC_except_table2585
00000000001af4ec r GCC_except_table2586
00000000001af53c r GCC_except_table2587
00000000001af558 r GCC_except_table2588
00000000001af568 r GCC_except_table2589
00000000001af588 r GCC_except_table2591
00000000001af598 r GCC_except_table2592
00000000001af5a8 r GCC_except_table2593
00000000001af5d4 r GCC_except_table2594
00000000001af610 r GCC_except_table2595
00000000001af61c r GCC_except_table2596
00000000001af628 r GCC_except_table2597
00000000001af63c r GCC_except_table2598
00000000001af64c r GCC_except_table2599
00000000001af670 r GCC_except_table2600
00000000001af680 r GCC_except_table2601
00000000001af6b8 r GCC_except_table2602
00000000001af6c4 r GCC_except_table2603
00000000001af6d0 r GCC_except_table2604
00000000001af6f4 r GCC_except_table2605
00000000001af710 r GCC_except_table2615
00000000001af9c4 r GCC_except_table2661
00000000001af9d8 r GCC_except_table2666
00000000001af9f0 r GCC_except_table2667
00000000001af9fc r GCC_except_table2669
00000000001afa08 r GCC_except_table2670
00000000001afa14 r GCC_except_table2671
00000000001afa28 r GCC_except_table2672
00000000001afa40 r GCC_except_table2674
00000000001afa54 r GCC_except_table2680
00000000001afa64 r GCC_except_table2682
00000000001afab0 r GCC_except_table2696
00000000001afae0 r GCC_except_table2697
00000000001afca8 r GCC_except_table2698
00000000001afcc8 r GCC_except_table2699
00000000001afce0 r GCC_except_table2700
00000000001afd08 r GCC_except_table2701
00000000001afda8 r GCC_except_table2705
00000000001afdbc r GCC_except_table2706
00000000001afdf8 r GCC_except_table2708
00000000001afe08 r GCC_except_table2718
00000000001afe98 r GCC_except_table2723
00000000001afec0 r GCC_except_table2737
00000000001afed4 r GCC_except_table2740
00000000001afee8 r GCC_except_table2742
00000000001afef4 r GCC_except_table2743
00000000001aff08 r GCC_except_table2745
00000000001aff1c r GCC_except_table2747
00000000001b00dc r GCC_except_table2749
00000000001b00ec r GCC_except_table2752
00000000001b00fc r GCC_except_table2754
00000000001b010c r GCC_except_table2758
00000000001a863c r GCC_except_table276
00000000001b011c r GCC_except_table2760
00000000001b012c r GCC_except_table2763
00000000001b0140 r GCC_except_table2771
00000000001b0148 r GCC_except_table2772
00000000001b0168 r GCC_except_table2779
00000000001a8650 r GCC_except_table279
00000000001b0180 r GCC_except_table2794
00000000001b01a0 r GCC_except_table2796
00000000001b01c8 r GCC_except_table2801
00000000001b01ec r GCC_except_table2802
00000000001b0214 r GCC_except_table2803
00000000001b0230 r GCC_except_table2806
00000000001b0260 r GCC_except_table2807
00000000001b0278 r GCC_except_table2808
00000000001b028c r GCC_except_table2809
00000000001b02a4 r GCC_except_table2811
00000000001b02b8 r GCC_except_table2817
00000000001b02d4 r GCC_except_table2823
00000000001b0308 r GCC_except_table2824
00000000001b033c r GCC_except_table2828
00000000001b0350 r GCC_except_table2829
00000000001b0378 r GCC_except_table2831
00000000001b03a8 r GCC_except_table2832
00000000001b03b8 r GCC_except_table2834
00000000001b03dc r GCC_except_table2836
00000000001b03f0 r GCC_except_table2838
00000000001b0408 r GCC_except_table2841
00000000001b0414 r GCC_except_table2843
00000000001b0430 r GCC_except_table2845
00000000001b0448 r GCC_except_table2850
00000000001b0458 r GCC_except_table2851
00000000001b04f0 r GCC_except_table2853
00000000001b0500 r GCC_except_table2854
00000000001b050c r GCC_except_table2863
00000000001b053c r GCC_except_table2866
00000000001a7c54 r GCC_except_table3
00000000001a7d3c r GCC_except_table31
00000000001a8664 r GCC_except_table312
00000000001a86a4 r GCC_except_table313
00000000001a86b0 r GCC_except_table317
00000000001a7d70 r GCC_except_table32
00000000001a7da4 r GCC_except_table33
00000000001a86e0 r GCC_except_table332
00000000001a7dd8 r GCC_except_table34
00000000001a7e0c r GCC_except_table35
00000000001a7e40 r GCC_except_table36
00000000001a86f8 r GCC_except_table363
00000000001a7e74 r GCC_except_table37
00000000001a88d0 r GCC_except_table379
00000000001a7ea8 r GCC_except_table38
00000000001a88e0 r GCC_except_table385
00000000001a7ed4 r GCC_except_table39
00000000001a890c r GCC_except_table393
00000000001a7c64 r GCC_except_table4
00000000001a7f08 r GCC_except_table40
00000000001a7f3c r GCC_except_table41
00000000001a7f70 r GCC_except_table42
00000000001a7fc8 r GCC_except_table43
00000000001a8020 r GCC_except_table44
00000000001a8078 r GCC_except_table45
00000000001a80d0 r GCC_except_table46
00000000001a8128 r GCC_except_table47
00000000001a8180 r GCC_except_table48
00000000001a891c r GCC_except_table485
00000000001a8934 r GCC_except_table487
00000000001a894c r GCC_except_table488
00000000001a81cc r GCC_except_table49
00000000001a8964 r GCC_except_table494
00000000001a7c70 r GCC_except_table5
00000000001a8224 r GCC_except_table50
00000000001a8978 r GCC_except_table506
00000000001a89a0 r GCC_except_table508
00000000001a827c r GCC_except_table51
00000000001a82d4 r GCC_except_table52
00000000001a89b8 r GCC_except_table523
00000000001a89c4 r GCC_except_table524
00000000001a89d8 r GCC_except_table525
00000000001a8a78 r GCC_except_table527
00000000001a8a84 r GCC_except_table528
00000000001a8a90 r GCC_except_table529
00000000001a8aa0 r GCC_except_table530
00000000001a8ac8 r GCC_except_table532
00000000001a8af0 r GCC_except_table535
00000000001a8b00 r GCC_except_table539
00000000001a8b1c r GCC_except_table540
00000000001a8b38 r GCC_except_table541
00000000001a8b48 r GCC_except_table543
00000000001a8bcc r GCC_except_table544
00000000001a8be0 r GCC_except_table545
00000000001a8bf4 r GCC_except_table547
00000000001a8d58 r GCC_except_table548
00000000001a8db4 r GCC_except_table552
00000000001a8dc8 r GCC_except_table553
00000000001a8ddc r GCC_except_table555
00000000001a8df4 r GCC_except_table556
00000000001a8e0c r GCC_except_table558
00000000001a8e20 r GCC_except_table562
00000000001a7c7c r GCC_except_table6
00000000001a8e34 r GCC_except_table620
00000000001a8e44 r GCC_except_table631
00000000001a8e58 r GCC_except_table633
00000000001a8e88 r GCC_except_table636
00000000001a8ea4 r GCC_except_table637
00000000001a832c r GCC_except_table64
00000000001a8eb4 r GCC_except_table645
00000000001a8ec8 r GCC_except_table649
00000000001a8340 r GCC_except_table65
00000000001a8354 r GCC_except_table66
00000000001a8edc r GCC_except_table661
00000000001a8ef0 r GCC_except_table667
00000000001a8368 r GCC_except_table67
00000000001a8f04 r GCC_except_table670
00000000001a837c r GCC_except_table68
00000000001a8390 r GCC_except_table69
00000000001a8f14 r GCC_except_table691
00000000001a7c90 r GCC_except_table7
00000000001a83a4 r GCC_except_table70
00000000001a8f30 r GCC_except_table706
00000000001a83b8 r GCC_except_table71
00000000001a8fdc r GCC_except_table711
00000000001a8fe8 r GCC_except_table712
00000000001a9010 r GCC_except_table713
00000000001a9024 r GCC_except_table715
00000000001a90c4 r GCC_except_table718
00000000001a83cc r GCC_except_table72
00000000001a90e4 r GCC_except_table725
00000000001a9218 r GCC_except_table726
00000000001a9240 r GCC_except_table727
00000000001a9268 r GCC_except_table728
00000000001a9278 r GCC_except_table729
00000000001a83e0 r GCC_except_table73
00000000001a9284 r GCC_except_table737
00000000001a92b8 r GCC_except_table739
00000000001a92f0 r GCC_except_table740
00000000001a930c r GCC_except_table741
00000000001a9324 r GCC_except_table747
00000000001a9334 r GCC_except_table750
00000000001a9344 r GCC_except_table752
00000000001a9354 r GCC_except_table756
00000000001a9368 r GCC_except_table757
00000000001a9378 r GCC_except_table763
00000000001a9398 r GCC_except_table764
00000000001a93c0 r GCC_except_table766
00000000001a83f4 r GCC_except_table77
00000000001a93d0 r GCC_except_table778
00000000001a93e4 r GCC_except_table781
00000000001a9420 r GCC_except_table810
00000000001a9460 r GCC_except_table812
00000000001a9488 r GCC_except_table813
00000000001a94c8 r GCC_except_table814
00000000001a94f0 r GCC_except_table815
00000000001a9530 r GCC_except_table816
00000000001a9558 r GCC_except_table817
00000000001a9598 r GCC_except_table818
00000000001a95c0 r GCC_except_table819
00000000001a9608 r GCC_except_table820
00000000001a9630 r GCC_except_table821
00000000001a9670 r GCC_except_table822
00000000001a9698 r GCC_except_table823
00000000001a96d8 r GCC_except_table824
00000000001a9700 r GCC_except_table825
00000000001a9740 r GCC_except_table826
00000000001a9768 r GCC_except_table827
00000000001a97a8 r GCC_except_table828
00000000001a97d0 r GCC_except_table829
00000000001a9800 r GCC_except_table830
00000000001a9828 r GCC_except_table831
00000000001a983c r GCC_except_table832
00000000001a9858 r GCC_except_table833
00000000001a9874 r GCC_except_table834
00000000001a9890 r GCC_except_table835
00000000001a98ac r GCC_except_table836
00000000001a98c8 r GCC_except_table837
00000000001a98e4 r GCC_except_table838
00000000001a9900 r GCC_except_table839
00000000001a991c r GCC_except_table840
00000000001a9938 r GCC_except_table841
00000000001a9954 r GCC_except_table842
00000000001a9970 r GCC_except_table843
00000000001a998c r GCC_except_table844
00000000001a99a8 r GCC_except_table845
00000000001a99bc r GCC_except_table846
00000000001a99d8 r GCC_except_table847
00000000001a99f4 r GCC_except_table848
00000000001a9a10 r GCC_except_table849
00000000001a8428 r GCC_except_table85
00000000001a9a2c r GCC_except_table850
00000000001a9a48 r GCC_except_table851
00000000001a9a64 r GCC_except_table852
00000000001a9ab4 r GCC_except_table854
00000000001a9ad0 r GCC_except_table855
00000000001a8478 r GCC_except_table86
00000000001a9b00 r GCC_except_table861
00000000001a9b2c r GCC_except_table862
00000000001a9b5c r GCC_except_table863
00000000001a9b8c r GCC_except_table864
00000000001a9bbc r GCC_except_table865
00000000001a9bec r GCC_except_table866
00000000001a9c1c r GCC_except_table867
00000000001a84a4 r GCC_except_table87
00000000001a9c48 r GCC_except_table872
00000000001a9c78 r GCC_except_table873
00000000001a9ca4 r GCC_except_table874
00000000001a9cd0 r GCC_except_table875
00000000001a9d00 r GCC_except_table876
00000000001a9d2c r GCC_except_table877
00000000001a9d58 r GCC_except_table878
00000000001a9d6c r GCC_except_table881
00000000001a9d80 r GCC_except_table884
00000000001a9d94 r GCC_except_table887
00000000001a9da8 r GCC_except_table890
00000000001a9dbc r GCC_except_table893
00000000001a9dd0 r GCC_except_table896
00000000001a9de4 r GCC_except_table899
00000000001a7c9c r GCC_except_table9
00000000001a9df8 r GCC_except_table902
00000000001a9e0c r GCC_except_table905
00000000001a9e20 r GCC_except_table920
00000000001a9e34 r GCC_except_table921
00000000001a9e44 r GCC_except_table922
00000000001a9e54 r GCC_except_table923
00000000001a9e64 r GCC_except_table924
00000000001a9e74 r GCC_except_table925
00000000001a9e84 r GCC_except_table926
00000000001a9e94 r GCC_except_table927
00000000001a9ea4 r GCC_except_table928
00000000001a9eb4 r GCC_except_table929
00000000001a9ec4 r GCC_except_table930
00000000001a9ed4 r GCC_except_table931
00000000001a9ef4 r GCC_except_table933
00000000001a9f14 r GCC_except_table934
00000000001a9f34 r GCC_except_table935
00000000001a9f54 r GCC_except_table936
00000000001a9f74 r GCC_except_table937
00000000001a9f94 r GCC_except_table938
00000000001a9fb0 r GCC_except_table939
00000000001a9fd0 r GCC_except_table940
00000000001a9ff0 r GCC_except_table941
00000000001aa010 r GCC_except_table942
00000000001aa030 r GCC_except_table943
00000000001aa0ac r GCC_except_table944
00000000001aa148 r GCC_except_table945
00000000001aa1e8 r GCC_except_table946
00000000001aa28c r GCC_except_table947
00000000001aa32c r GCC_except_table948
00000000001aa3cc r GCC_except_table949
00000000001aa468 r GCC_except_table950
00000000001aa508 r GCC_except_table951
00000000001aa5a8 r GCC_except_table952
00000000001aa644 r GCC_except_table953
00000000001aa6e0 r GCC_except_table955
00000000001aa6f0 r GCC_except_table957
00000000000df650 T get_allocator_mapping
                 U getcwd@GLIBC_2.2.5
                 U getenv@GLIBC_2.2.5
00000000000e16b0 T get_finalized_object
00000000000df6e0 T get_max_non_los_default_alloc_bytes
00000000000dde40 T get_mmtk_version
                 w getrandom@GLIBC_2.25
000000000017ec58 R GLOBAL_ALLOC_BIT_ADDRESS
00000000001c3d28 d _GLOBAL_OFFSET_TABLE_
000000000017ec48 R GLOBAL_SIDE_METADATA_BASE_ADDRESS
000000000017ec50 R GLOBAL_SIDE_METADATA_VM_BASE_ADDRESS
                 w __gmon_start__
0000000000183a70 r __GNU_EH_FRAME_HDR
00000000000e0480 T handle_user_collection_request
00000000000e0aa0 T harness_begin
00000000000e0fc0 T harness_end
0000000000021000 t _init
00000000000dfc50 T initialize_collection
                 U isatty@GLIBC_2.2.5
00000000000e04f0 T is_in_mmtk_spaces
00000000000e0530 T is_mapped_address
                 w _ITM_deregisterTMCloneTable
                 w _ITM_registerTMCloneTable
00000000000e1430 T last_heap_address
                 U lseek64@GLIBC_2.2.5
                 U malloc@GLIBC_2.2.5
                 U malloc_usable_size@GLIBC_2.2.5
                 U memchr@GLIBC_2.2.5
                 U memcmp@GLIBC_2.2.5
                 U memcpy@GLIBC_2.14
                 U memmove@GLIBC_2.2.5
                 U memrchr@GLIBC_2.2.5
                 U memset@GLIBC_2.2.5
                 U mmap@GLIBC_2.2.5
00000000000ddea0 T mmtk_active_barrier
00000000000e1830 T mmtk_add_nmethod_oop
00000000000e0ab0 T mmtk_harness_begin_impl
00000000000e0fd0 T mmtk_harness_end_impl
000000000017ec60 R MMTK_MARK_COMPACT_HEADER_RESERVED_IN_BYTES
00000000000e1910 T mmtk_register_nmethod
00000000000de220 T mmtk_set_heap_size
00000000000e1f70 T mmtk_unregister_nmethod
00000000000e0540 T modify_check
                 U mprotect@GLIBC_2.2.5
                 U munmap@GLIBC_2.2.5
                 U open64@GLIBC_2.2.5
00000000000de140 T openjdk_gc_init
00000000000de200 T openjdk_is_gc_initialized
00000000000e1440 T openjdk_max_capacity
                 U posix_memalign@GLIBC_2.2.5
00000000000df750 T post_alloc
00000000000e1050 T process
00000000000e1270 T process_bulk
                 U pthread_condattr_destroy@GLIBC_2.2.5
                 U pthread_condattr_init@GLIBC_2.2.5
                 U pthread_condattr_setclock@GLIBC_2.34
                 U pthread_cond_broadcast@GLIBC_2.3.2
                 U pthread_cond_destroy@GLIBC_2.3.2
                 U pthread_cond_init@GLIBC_2.3.2
                 U pthread_cond_signal@GLIBC_2.3.2
                 U pthread_cond_wait@GLIBC_2.3.2
                 U pthread_getspecific@GLIBC_2.34
                 U pthread_key_create@GLIBC_2.34
                 U pthread_key_delete@GLIBC_2.34
                 U pthread_mutexattr_destroy@GLIBC_2.34
                 U pthread_mutexattr_init@GLIBC_2.34
                 U pthread_mutexattr_settype@GLIBC_2.34
                 U pthread_mutex_destroy@GLIBC_2.2.5
                 U pthread_mutex_init@GLIBC_2.2.5
                 U pthread_mutex_lock@GLIBC_2.2.5
                 U pthread_mutex_unlock@GLIBC_2.2.5
                 U pthread_rwlock_destroy@GLIBC_2.34
                 U pthread_rwlock_rdlock@GLIBC_2.34
                 U pthread_rwlock_unlock@GLIBC_2.34
                 U pthread_rwlock_wrlock@GLIBC_2.34
                 U pthread_setspecific@GLIBC_2.34
                 U read@GLIBC_2.2.5
                 U readlink@GLIBC_2.2.5
                 U realloc@GLIBC_2.2.5
                 U realpath@GLIBC_2.3
00000000000e14c0 T record_modified_node
000000000002c890 t register_tm_clones
00000000000de120 T release_buffer
0000000000052060 t __rg_oom
0000000000040bd0 t __rust_alloc
0000000000040cb0 t __rust_alloc_error_handler
000000000016eff0 t rust_begin_unwind
000000000016eda0 t __rust_drop_panic
00000000000f6ba0 T rust_eh_personality
00000000001c43b8 d _rust_extern_with_linkage___dso_handle
000000000016ed80 t rust_oom
000000000016d520 t rust_panic
000000000017056d t __rust_probestack
0000000000040c20 t __rust_realloc
00000000000f7060 t __rust_start_panic
                 U sched_getaffinity@GLIBC_2.3.4
                 U sched_yield@GLIBC_2.2.5
0000000000183a6c r _.stapsdt.base
00000000000df7c0 T start_control_collector
00000000000e1420 T starting_heap_address
00000000000dfb90 T start_worker
                 U stat64@GLIBC_2.33
                 w statx@GLIBC_2.28
000000000017d8a0 r str.0.1418
000000000017e640 r str.0.2189
0000000000180030 r str.0.4195
0000000000180610 r str.0.5282
0000000000180d50 r str.0.6021
0000000000182640 r str.0.7345
0000000000175cf0 r str.1
000000000017d8c0 r str.1.1419
00000000001827e0 r str.1.7344
                 U strlen@GLIBC_2.2.5
                 U syscall@GLIBC_2.2.5
                 U sysconf@GLIBC_2.2.5
                 U __tls_get_addr@GLIBC_2.3
00000000001c43c8 d __TMC_END__
00000000000e1440 T total_bytes
                 U _Unwind_Backtrace@GCC_3.3
                 U _Unwind_GetDataRelBase@GCC_3.0
                 U _Unwind_GetIP@GCC_3.0
                 U _Unwind_GetIPInfo@GCC_4.2.0
                 U _Unwind_GetLanguageSpecificData@GCC_3.0
                 U _Unwind_GetRegionStart@GCC_3.0
                 U _Unwind_GetTextRelBase@GCC_3.0
                 U _Unwind_RaiseException@GCC_3.0
                 U _Unwind_Resume@GCC_3.0
                 U _Unwind_SetGR@GCC_3.0
                 U _Unwind_SetIP@GCC_3.0
00000000000e03a0 T used_bytes
00000000000df790 T will_never_move
                 U write@GLIBC_2.2.5
                 U __xpg_strerror_r@GLIBC_2.3.4
0000000000061430 t _ZN100_$LT$env_logger..fmt..writer..termcolor..imp..StyledValue$LT$T$GT$$u20$as$u20$core..fmt..Display$GT$3fmt17h3b08971166a85ac8E
0000000000061590 t _ZN100_$LT$env_logger..fmt..writer..termcolor..imp..StyledValue$LT$T$GT$$u20$as$u20$core..fmt..Display$GT$3fmt17h87eede035c8c09b5E
00000000001c4110 d _ZN101_$LT$mmtk..plan..nogc..mutator..ALLOCATOR_MAPPING_SINGLE_SPACE$u20$as$u20$core..ops..deref..Deref$GT$5deref11__stability4LAZY17hd0d204cc174a4aa3E
00000000000c5750 t _ZN101_$LT$mmtk..policy..copyspace..CopySpace$LT$VM$GT$$u20$as$u20$mmtk..policy..space..Space$LT$VM$GT$$GT$14initialize_sft17hd8c465639265cde8E
00000000000c5730 t _ZN101_$LT$mmtk..policy..copyspace..CopySpace$LT$VM$GT$$u20$as$u20$mmtk..policy..space..Space$LT$VM$GT$$GT$17get_page_resource17h8f2a923f7b14ef73E
00000000000c5cf0 t _ZN101_$LT$mmtk..policy..copyspace..CopySpace$LT$VM$GT$$u20$as$u20$mmtk..policy..space..Space$LT$VM$GT$$GT$22release_multiple_pages17h112f304bebe9b294E
00000000000c5d40 t _ZN101_$LT$mmtk..policy..copyspace..CopySpace$LT$VM$GT$$u20$as$u20$mmtk..policy..space..Space$LT$VM$GT$$GT$22set_copy_for_sft_trace17h7ff621fdcdfc3035E
00000000000c5720 t _ZN101_$LT$mmtk..policy..copyspace..CopySpace$LT$VM$GT$$u20$as$u20$mmtk..policy..space..Space$LT$VM$GT$$GT$6as_sft17hab2febcff9cd77e2E
00000000000c5ce0 t _ZN101_$LT$mmtk..policy..copyspace..CopySpace$LT$VM$GT$$u20$as$u20$mmtk..policy..space..Space$LT$VM$GT$$GT$6common17h659aaad73d38cf36E
00000000000c5710 t _ZN101_$LT$mmtk..policy..copyspace..CopySpace$LT$VM$GT$$u20$as$u20$mmtk..policy..space..Space$LT$VM$GT$$GT$8as_space17h42e449e74b59c1b9E
000000000009ad20 t _ZN101_$LT$mmtk..policy..mallocspace..global..MallocSpace$LT$VM$GT$$u20$as$u20$mmtk..policy..space..SFT$GT$10is_movable17h87efd36d05410bfaE
000000000009ad30 t _ZN101_$LT$mmtk..policy..mallocspace..global..MallocSpace$LT$VM$GT$$u20$as$u20$mmtk..policy..space..SFT$GT$11is_in_space17h937e3a6cf48e355aE
000000000009ae70 t _ZN101_$LT$mmtk..policy..mallocspace..global..MallocSpace$LT$VM$GT$$u20$as$u20$mmtk..policy..space..SFT$GT$16sft_trace_object17h480ebc57de8cde23E
00000000000add50 t _ZN101_$LT$mmtk..policy..mallocspace..global..MallocSpace$LT$VM$GT$$u20$as$u20$mmtk..policy..space..SFT$GT$16sft_trace_object17h480ebc57de8cde23E.2422
00000000000b67b0 t _ZN101_$LT$mmtk..policy..mallocspace..global..MallocSpace$LT$VM$GT$$u20$as$u20$mmtk..policy..space..SFT$GT$16sft_trace_object17h480ebc57de8cde23E.2700
00000000000dc1d0 t _ZN101_$LT$mmtk..policy..mallocspace..global..MallocSpace$LT$VM$GT$$u20$as$u20$mmtk..policy..space..SFT$GT$16sft_trace_object17h480ebc57de8cde23E.3915
000000000009ae10 t _ZN101_$LT$mmtk..policy..mallocspace..global..MallocSpace$LT$VM$GT$$u20$as$u20$mmtk..policy..space..SFT$GT$26initialize_object_metadata17h7aa9f176d017e5cfE
000000000009ac70 t _ZN101_$LT$mmtk..policy..mallocspace..global..MallocSpace$LT$VM$GT$$u20$as$u20$mmtk..policy..space..SFT$GT$4name17h1ef45117517a62dfE
000000000009ae00 t _ZN101_$LT$mmtk..policy..mallocspace..global..MallocSpace$LT$VM$GT$$u20$as$u20$mmtk..policy..space..SFT$GT$6sft_id17hcb33711199a0058fE
000000000009aca0 t _ZN101_$LT$mmtk..policy..mallocspace..global..MallocSpace$LT$VM$GT$$u20$as$u20$mmtk..policy..space..SFT$GT$7is_live17hd8d47fadcea3f584E
00000000001c5580 b _ZN101_$LT$mmtk..policy..mallocspace..metadata..MAX_METADATA_ADDRESS$u20$as$u20$core..ops..deref..Deref$GT$5deref11__stability4LAZY17h4d2d2478bf744e2dE
00000000000a4d50 t _ZN102_$LT$core..iter..adapters..map..Map$LT$I$C$F$GT$$u20$as$u20$core..iter..traits..iterator..Iterator$GT$4fold17h0663d11d6588d041E
00000000000a5140 t _ZN102_$LT$core..iter..adapters..map..Map$LT$I$C$F$GT$$u20$as$u20$core..iter..traits..iterator..Iterator$GT$4fold17h2fe360234acb9ac0E
00000000000a61a0 t _ZN102_$LT$core..iter..adapters..map..Map$LT$I$C$F$GT$$u20$as$u20$core..iter..traits..iterator..Iterator$GT$4fold17h548f1c8ec1848552E
00000000000a6c60 t _ZN102_$LT$core..iter..adapters..map..Map$LT$I$C$F$GT$$u20$as$u20$core..iter..traits..iterator..Iterator$GT$4fold17h6b7a6c15e481b5f3E
00000000000a7230 t _ZN102_$LT$core..iter..adapters..map..Map$LT$I$C$F$GT$$u20$as$u20$core..iter..traits..iterator..Iterator$GT$4fold17h8e78c12146b640c7E
00000000000a7dd0 t _ZN102_$LT$core..iter..adapters..map..Map$LT$I$C$F$GT$$u20$as$u20$core..iter..traits..iterator..Iterator$GT$4fold17hd152441823f6b34cE
00000000000a8760 t _ZN102_$LT$core..iter..adapters..map..Map$LT$I$C$F$GT$$u20$as$u20$core..iter..traits..iterator..Iterator$GT$4fold17hf1d9e3bccce9e571E
00000000000a9180 t _ZN102_$LT$core..iter..adapters..map..Map$LT$I$C$F$GT$$u20$as$u20$core..iter..traits..iterator..Iterator$GT$4fold17hf2eef53b0bed5643E
00000000000a9950 t _ZN102_$LT$core..iter..adapters..map..Map$LT$I$C$F$GT$$u20$as$u20$core..iter..traits..iterator..Iterator$GT$4fold17hf6b600d1a7a5d626E
00000000000a9c60 t _ZN102_$LT$core..iter..adapters..map..Map$LT$I$C$F$GT$$u20$as$u20$core..iter..traits..iterator..Iterator$GT$4fold17hfee20531dfedda1dE
00000000001c57d0 b _ZN102_$LT$mmtk_openjdk..build_info..MMTK_OPENJDK_FULL_VERSION_STRING$u20$as$u20$core..ops..deref..Deref$GT$5deref11__stability4LAZY17hcb956545612896bcE
0000000000087750 t _ZN102_$LT$mmtk..scheduler..gc_work..PrepareCollector$u20$as$u20$mmtk..scheduler..work..GCWork$LT$VM$GT$$GT$7do_work17h4262442b9ec3eef8E
00000000000890f0 t _ZN102_$LT$mmtk..scheduler..gc_work..ReleaseCollector$u20$as$u20$mmtk..scheduler..work..GCWork$LT$VM$GT$$GT$7do_work17head675ac735c20cbE
000000000003aa60 t _ZN103_$LT$mmtk..policy..largeobjectspace..LargeObjectSpace$LT$VM$GT$$u20$as$u20$mmtk..policy..space..SFT$GT$16sft_trace_object17h21e9aee09a86376fE
000000000003a7b0 t _ZN103_$LT$mmtk..policy..largeobjectspace..LargeObjectSpace$LT$VM$GT$$u20$as$u20$mmtk..policy..space..SFT$GT$26initialize_object_metadata17hb3869b0e8cb75f96E
000000000003a750 t _ZN103_$LT$mmtk..policy..largeobjectspace..LargeObjectSpace$LT$VM$GT$$u20$as$u20$mmtk..policy..space..SFT$GT$4name17h9802175a42921b41E
000000000003a760 t _ZN103_$LT$mmtk..policy..largeobjectspace..LargeObjectSpace$LT$VM$GT$$u20$as$u20$mmtk..policy..space..SFT$GT$6sft_id17ha175a13fc54a471dE
000000000003a770 t _ZN103_$LT$mmtk..policy..largeobjectspace..LargeObjectSpace$LT$VM$GT$$u20$as$u20$mmtk..policy..space..SFT$GT$7is_live17hcaad1f3b8ea5156fE
00000000000ac3a0 t _ZN103_$LT$mmtk..policy..markcompactspace..MarkCompactSpace$LT$VM$GT$$u20$as$u20$mmtk..policy..space..SFT$GT$10is_movable17h033dd7dacd5ca2a3E
00000000000ac420 t _ZN103_$LT$mmtk..policy..markcompactspace..MarkCompactSpace$LT$VM$GT$$u20$as$u20$mmtk..policy..space..SFT$GT$16sft_trace_object17h8502162cb4b60a88E
00000000000ac300 t _ZN103_$LT$mmtk..policy..markcompactspace..MarkCompactSpace$LT$VM$GT$$u20$as$u20$mmtk..policy..space..SFT$GT$20get_forwarded_object17hdb35ba16ac367c48E
00000000000ac3d0 t _ZN103_$LT$mmtk..policy..markcompactspace..MarkCompactSpace$LT$VM$GT$$u20$as$u20$mmtk..policy..space..SFT$GT$26initialize_object_metadata17h30c9d44bd63e3d93E
00000000000ac2f0 t _ZN103_$LT$mmtk..policy..markcompactspace..MarkCompactSpace$LT$VM$GT$$u20$as$u20$mmtk..policy..space..SFT$GT$4name17hf21c15e21bf63416E
00000000000ac3c0 t _ZN103_$LT$mmtk..policy..markcompactspace..MarkCompactSpace$LT$VM$GT$$u20$as$u20$mmtk..policy..space..SFT$GT$6sft_id17h139e06dc9ca045d0E
00000000000ac320 t _ZN103_$LT$mmtk..policy..markcompactspace..MarkCompactSpace$LT$VM$GT$$u20$as$u20$mmtk..policy..space..SFT$GT$7is_live17h6f735954515a1540E
0000000000149910 t _ZN104_$LT$core..iter..sources..from_fn..FromFn$LT$F$GT$$u20$as$u20$core..iter..traits..iterator..Iterator$GT$4next17h9d29ae320b9d42feE
00000000000bbd00 t _ZN104_$LT$mmtk..plan..generational..immix..global..GenImmix$LT$VM$GT$$u20$as$u20$mmtk..plan..global..Plan$GT$10get_spaces17hf1e5e23a28f51860E
00000000000bbc00 t _ZN104_$LT$mmtk..plan..generational..immix..global..GenImmix$LT$VM$GT$$u20$as$u20$mmtk..plan..global..Plan$GT$11constraints17h41fe5e2fa403c77aE
00000000000bc130 t _ZN104_$LT$mmtk..plan..generational..immix..global..GenImmix$LT$VM$GT$$u20$as$u20$mmtk..plan..global..Plan$GT$12generational17h2e8f50ea1bb4abcdE
00000000000bc860 t _ZN104_$LT$mmtk..plan..generational..immix..global..GenImmix$LT$VM$GT$$u20$as$u20$mmtk..plan..global..Plan$GT$14get_used_pages17h7653dac352754fedE
00000000000bbc10 t _ZN104_$LT$mmtk..plan..generational..immix..global..GenImmix$LT$VM$GT$$u20$as$u20$mmtk..plan..global..Plan$GT$18create_copy_config17h5abc8ff563099d42E
00000000000bbce0 t _ZN104_$LT$mmtk..plan..generational..immix..global..GenImmix$LT$VM$GT$$u20$as$u20$mmtk..plan..global..Plan$GT$19collection_required17hb6b58dce38a1944fE
00000000000bc160 t _ZN104_$LT$mmtk..plan..generational..immix..global..GenImmix$LT$VM$GT$$u20$as$u20$mmtk..plan..global..Plan$GT$19get_available_pages17h0db6b669139084eeE
00000000000bbdc0 t _ZN104_$LT$mmtk..plan..generational..immix..global..GenImmix$LT$VM$GT$$u20$as$u20$mmtk..plan..global..Plan$GT$19schedule_collection17hae0e973901713983E
00000000000bbfb0 t _ZN104_$LT$mmtk..plan..generational..immix..global..GenImmix$LT$VM$GT$$u20$as$u20$mmtk..plan..global..Plan$GT$21get_allocator_mapping17hfdc615db16178af3E
00000000000bc140 t _ZN104_$LT$mmtk..plan..generational..immix..global..GenImmix$LT$VM$GT$$u20$as$u20$mmtk..plan..global..Plan$GT$21is_current_gc_nursery17hce78725655ed17f1E
00000000000bbcc0 t _ZN104_$LT$mmtk..plan..generational..immix..global..GenImmix$LT$VM$GT$$u20$as$u20$mmtk..plan..global..Plan$GT$25last_collection_full_heap17h503e60bbfd777795E
00000000000bbcb0 t _ZN104_$LT$mmtk..plan..generational..immix..global..GenImmix$LT$VM$GT$$u20$as$u20$mmtk..plan..global..Plan$GT$26force_full_heap_collection17h71525e4661e7a15dE
00000000000bc6a0 t _ZN104_$LT$mmtk..plan..generational..immix..global..GenImmix$LT$VM$GT$$u20$as$u20$mmtk..plan..global..Plan$GT$29get_collection_reserved_pages17haa72c9ab273615ffE
00000000000bbc90 t _ZN104_$LT$mmtk..plan..generational..immix..global..GenImmix$LT$VM$GT$$u20$as$u20$mmtk..plan..global..Plan$GT$30last_collection_was_exhaustive17h41bb51f3abf54faaE
00000000000bc680 t _ZN104_$LT$mmtk..plan..generational..immix..global..GenImmix$LT$VM$GT$$u20$as$u20$mmtk..plan..global..Plan$GT$35get_mature_physical_pages_available17hdb262f5e5d8b153aE
00000000000bc110 t _ZN104_$LT$mmtk..plan..generational..immix..global..GenImmix$LT$VM$GT$$u20$as$u20$mmtk..plan..global..Plan$GT$4base17h3bd59f8627b56a8dE
00000000000bc120 t _ZN104_$LT$mmtk..plan..generational..immix..global..GenImmix$LT$VM$GT$$u20$as$u20$mmtk..plan..global..Plan$GT$6common17h5f5b5c25e50e077fE
00000000000bc010 t _ZN104_$LT$mmtk..plan..generational..immix..global..GenImmix$LT$VM$GT$$u20$as$u20$mmtk..plan..global..Plan$GT$7prepare17h085476d997ff0610E
00000000000bc050 t _ZN104_$LT$mmtk..plan..generational..immix..global..GenImmix$LT$VM$GT$$u20$as$u20$mmtk..plan..global..Plan$GT$7release17h458d8bed19113029E
0000000000101ff0 t _ZN105_$LT$aho_corasick..dfa..PremultipliedByteClass$LT$S$GT$$u20$as$u20$aho_corasick..automaton..Automaton$GT$9get_match17h3c16a0b268de9a6dE
0000000000072a30 t _ZN105_$LT$core..iter..adapters..ResultShunt$LT$I$C$E$GT$$u20$as$u20$core..iter..traits..iterator..Iterator$GT$4next17h3b436ffc62f49e25E
00000000000c1c30 t _ZN105_$LT$mmtk..plan..barriers..ObjectRememberingBarrier$LT$E$GT$$u20$as$u20$mmtk..plan..barriers..Barrier$GT$18post_write_barrier17hfaafdd6b29801da5E
0000000000026e00 t _ZN105_$LT$mmtk..plan..barriers..ObjectRememberingBarrier$LT$E$GT$$u20$as$u20$mmtk..plan..barriers..Barrier$GT$5flush17hab7453237804b225E
00000000000c0360 t _ZN105_$LT$mmtk..plan..generational..copying..global..GenCopy$LT$VM$GT$$u20$as$u20$mmtk..plan..global..Plan$GT$10get_spaces17hb8edba37e9f3cce3E
00000000000c0170 t _ZN105_$LT$mmtk..plan..generational..copying..global..GenCopy$LT$VM$GT$$u20$as$u20$mmtk..plan..global..Plan$GT$11constraints17h1c00740e1b767c02E
00000000000c0810 t _ZN105_$LT$mmtk..plan..generational..copying..global..GenCopy$LT$VM$GT$$u20$as$u20$mmtk..plan..global..Plan$GT$12generational17h9a55e94b8900a4aeE
00000000000c1250 t _ZN105_$LT$mmtk..plan..generational..copying..global..GenCopy$LT$VM$GT$$u20$as$u20$mmtk..plan..global..Plan$GT$14get_used_pages17h3eb2bbf8c5fb4164E
00000000000c0700 t _ZN105_$LT$mmtk..plan..generational..copying..global..GenCopy$LT$VM$GT$$u20$as$u20$mmtk..plan..global..Plan$GT$14prepare_worker17h14ec5157b7951936E
00000000000c0180 t _ZN105_$LT$mmtk..plan..generational..copying..global..GenCopy$LT$VM$GT$$u20$as$u20$mmtk..plan..global..Plan$GT$18create_copy_config17h966a20b3a1e849d5E
00000000000c0310 t _ZN105_$LT$mmtk..plan..generational..copying..global..GenCopy$LT$VM$GT$$u20$as$u20$mmtk..plan..global..Plan$GT$19collection_required17h48a5508a2baae1afE
00000000000c0840 t _ZN105_$LT$mmtk..plan..generational..copying..global..GenCopy$LT$VM$GT$$u20$as$u20$mmtk..plan..global..Plan$GT$19get_available_pages17hf8bc956ce1d106ecE
00000000000c0460 t _ZN105_$LT$mmtk..plan..generational..copying..global..GenCopy$LT$VM$GT$$u20$as$u20$mmtk..plan..global..Plan$GT$19schedule_collection17h05b75007563fdb61E
00000000000c0820 t _ZN105_$LT$mmtk..plan..generational..copying..global..GenCopy$LT$VM$GT$$u20$as$u20$mmtk..plan..global..Plan$GT$21is_current_gc_nursery17hce80e69a4d644373E
00000000000c0340 t _ZN105_$LT$mmtk..plan..generational..copying..global..GenCopy$LT$VM$GT$$u20$as$u20$mmtk..plan..global..Plan$GT$25last_collection_full_heap17h774a5d309f982106E
00000000000c0330 t _ZN105_$LT$mmtk..plan..generational..copying..global..GenCopy$LT$VM$GT$$u20$as$u20$mmtk..plan..global..Plan$GT$26force_full_heap_collection17hf8db3013664a2206E
00000000000c0f20 t _ZN105_$LT$mmtk..plan..generational..copying..global..GenCopy$LT$VM$GT$$u20$as$u20$mmtk..plan..global..Plan$GT$29get_collection_reserved_pages17h38f4709fdb429814E
00000000000c0ef0 t _ZN105_$LT$mmtk..plan..generational..copying..global..GenCopy$LT$VM$GT$$u20$as$u20$mmtk..plan..global..Plan$GT$35get_mature_physical_pages_available17hbf3cd0cb93afadd8E
00000000000c07f0 t _ZN105_$LT$mmtk..plan..generational..copying..global..GenCopy$LT$VM$GT$$u20$as$u20$mmtk..plan..global..Plan$GT$4base17h0068021b263f3698E
00000000000c0800 t _ZN105_$LT$mmtk..plan..generational..copying..global..GenCopy$LT$VM$GT$$u20$as$u20$mmtk..plan..global..Plan$GT$6common17h32064ee3b56ff3c6E
00000000000c0670 t _ZN105_$LT$mmtk..plan..generational..copying..global..GenCopy$LT$VM$GT$$u20$as$u20$mmtk..plan..global..Plan$GT$7prepare17h3f5ee3673507412fE
00000000000c0740 t _ZN105_$LT$mmtk..plan..generational..copying..global..GenCopy$LT$VM$GT$$u20$as$u20$mmtk..plan..global..Plan$GT$7release17hb692f609901d9113E
00000000001c4478 b _ZN107_$LT$mmtk..util..metadata..side_metadata..sanity..CONTENT_SANITY_MAP$u20$as$u20$core..ops..deref..Deref$GT$5deref11__stability4LAZY17hac10542aec18e74bE
00000000000d3fb0 t _ZN108_$LT$mmtk..policy..immix..chunk..SweepChunk$LT$VM$GT$$u20$as$u20$mmtk..scheduler..work..GCWork$LT$VM$GT$$GT$7do_work17h629f5a83d19966eaE
00000000000be8f0 t _ZN109_$LT$mmtk..policy..immortalspace..ImmortalSpace$LT$VM$GT$$u20$as$u20$mmtk..policy..space..Space$LT$VM$GT$$GT$14initialize_sft17h86986d9be9f41ce5E
00000000000be8d0 t _ZN109_$LT$mmtk..policy..immortalspace..ImmortalSpace$LT$VM$GT$$u20$as$u20$mmtk..policy..space..Space$LT$VM$GT$$GT$17get_page_resource17hd58d09c44dd90e51E
00000000000bee90 t _ZN109_$LT$mmtk..policy..immortalspace..ImmortalSpace$LT$VM$GT$$u20$as$u20$mmtk..policy..space..Space$LT$VM$GT$$GT$22release_multiple_pages17hc7c3761fba01b6a6E
00000000000be8c0 t _ZN109_$LT$mmtk..policy..immortalspace..ImmortalSpace$LT$VM$GT$$u20$as$u20$mmtk..policy..space..Space$LT$VM$GT$$GT$6as_sft17hd59f9e6cb2193af8E
00000000000bee80 t _ZN109_$LT$mmtk..policy..immortalspace..ImmortalSpace$LT$VM$GT$$u20$as$u20$mmtk..policy..space..Space$LT$VM$GT$$GT$6common17hbf0cdae25070fedfE
00000000000be8b0 t _ZN109_$LT$mmtk..policy..immortalspace..ImmortalSpace$LT$VM$GT$$u20$as$u20$mmtk..policy..space..Space$LT$VM$GT$$GT$8as_space17h9de609cedef5f9ffE
0000000000074b70 t _ZN10env_logger17try_init_from_env17h03eda4683e183d45E
00000000000607a0 t _ZN10env_logger3fmt13DefaultFormat12subtle_style17hf9ac7e782e40a7d6E
0000000000061260 t _ZN10env_logger3fmt6writer9termcolor3imp6Buffer9set_color17he0427f5b21c769acE
000000000005f630 t _ZN10env_logger3fmt7Builder5build28_$u7b$$u7b$closure$u7d$$u7d$17h2285373b8dec0d5aE
000000000005f420 t _ZN10env_logger3fmt9Formatter3new17he3f31fc2429c6ebeE
00000000000617d0 t _ZN10env_logger3Var3get17he79595a749a8086dE
000000000002c400 t _ZN10std_detect6detect5cache21detect_and_initialize17h95a595f0eff594faE
00000000001c5a50 b _ZN10std_detect6detect5cache5CACHE17hc1232817ad490039E
00000000000b0510 t _ZN110_$LT$mmtk..policy..immix..immixspace..ImmixSpace$LT$VM$GT$$u20$as$u20$mmtk..policy..space..Space$LT$VM$GT$$GT$14initialize_sft17ha4ce863a2be184ddE
00000000000b04f0 t _ZN110_$LT$mmtk..policy..immix..immixspace..ImmixSpace$LT$VM$GT$$u20$as$u20$mmtk..policy..space..Space$LT$VM$GT$$GT$17get_page_resource17h41c425b04780bf27E
00000000000b0ab0 t _ZN110_$LT$mmtk..policy..immix..immixspace..ImmixSpace$LT$VM$GT$$u20$as$u20$mmtk..policy..space..Space$LT$VM$GT$$GT$22release_multiple_pages17hd6bb14ec9536b5feE
00000000000b0b00 t _ZN110_$LT$mmtk..policy..immix..immixspace..ImmixSpace$LT$VM$GT$$u20$as$u20$mmtk..policy..space..Space$LT$VM$GT$$GT$22set_copy_for_sft_trace17h2d15890da3b45196E
00000000000b04e0 t _ZN110_$LT$mmtk..policy..immix..immixspace..ImmixSpace$LT$VM$GT$$u20$as$u20$mmtk..policy..space..Space$LT$VM$GT$$GT$6as_sft17h5627d77af6d8a0aeE
00000000000b0aa0 t _ZN110_$LT$mmtk..policy..immix..immixspace..ImmixSpace$LT$VM$GT$$u20$as$u20$mmtk..policy..space..Space$LT$VM$GT$$GT$6common17h2bbe957936862d0fE
00000000000b04d0 t _ZN110_$LT$mmtk..policy..immix..immixspace..ImmixSpace$LT$VM$GT$$u20$as$u20$mmtk..policy..space..Space$LT$VM$GT$$GT$8as_space17h680f1e05c7007a4aE
00000000000877b0 t _ZN110_$LT$mmtk..scheduler..gc_work..PrepareMutator$LT$VM$GT$$u20$as$u20$mmtk..scheduler..work..GCWork$LT$VM$GT$$GT$7do_work17h472c481dabe9fc71E
0000000000089110 t _ZN110_$LT$mmtk..scheduler..gc_work..ReleaseMutator$LT$VM$GT$$u20$as$u20$mmtk..scheduler..work..GCWork$LT$VM$GT$$GT$7do_work17h688a29e54e93732aE
00000000000dbb50 t _ZN111_$LT$mmtk..plan..markcompact..gc_work..Compact$LT$VM$GT$$u20$as$u20$mmtk..scheduler..work..GCWork$LT$VM$GT$$GT$7do_work17h9d819439f2ee5acbE
000000000006ef00 t _ZN111_$LT$mmtk..util..statistics..counter..MonotoneNanoTime$u20$as$u20$mmtk..util..statistics..counter..Diffable$GT$13current_value17h2274040ce96943beE
000000000016b3e0 t _ZN111_$LT$std..io..buffered..bufwriter..BufWriter$LT$W$GT$..flush_buf..BufGuard$u20$as$u20$core..ops..drop..Drop$GT$4drop17h6a34a39c10cefd0aE
0000000000037b90 t _ZN112_$LT$mmtk_openjdk..scanning..VMScanning$u20$as$u20$mmtk..vm..scanning..Scanning$LT$mmtk_openjdk..OpenJDK$GT$$GT$22scan_vm_specific_roots17h203faf5a62948948E
0000000000037ff0 t _ZN112_$LT$mmtk_openjdk..scanning..VMScanning$u20$as$u20$mmtk..vm..scanning..Scanning$LT$mmtk_openjdk..OpenJDK$GT$$GT$22scan_vm_specific_roots17h36a1e1923628d547E
0000000000038450 t _ZN112_$LT$mmtk_openjdk..scanning..VMScanning$u20$as$u20$mmtk..vm..scanning..Scanning$LT$mmtk_openjdk..OpenJDK$GT$$GT$22scan_vm_specific_roots17h4417344b6009bc05E
00000000000388b0 t _ZN112_$LT$mmtk_openjdk..scanning..VMScanning$u20$as$u20$mmtk..vm..scanning..Scanning$LT$mmtk_openjdk..OpenJDK$GT$$GT$22scan_vm_specific_roots17h6e52e5ff1de2bedeE
0000000000038d10 t _ZN112_$LT$mmtk_openjdk..scanning..VMScanning$u20$as$u20$mmtk..vm..scanning..Scanning$LT$mmtk_openjdk..OpenJDK$GT$$GT$22scan_vm_specific_roots17h85cc02fef7e67debE
0000000000039170 t _ZN112_$LT$mmtk_openjdk..scanning..VMScanning$u20$as$u20$mmtk..vm..scanning..Scanning$LT$mmtk_openjdk..OpenJDK$GT$$GT$22scan_vm_specific_roots17h86a0589e39577addE
00000000000395d0 t _ZN112_$LT$mmtk_openjdk..scanning..VMScanning$u20$as$u20$mmtk..vm..scanning..Scanning$LT$mmtk_openjdk..OpenJDK$GT$$GT$22scan_vm_specific_roots17h93a0f2d24c098192E
0000000000039a30 t _ZN112_$LT$mmtk_openjdk..scanning..VMScanning$u20$as$u20$mmtk..vm..scanning..Scanning$LT$mmtk_openjdk..OpenJDK$GT$$GT$22scan_vm_specific_roots17h97fdac7ceecf3202E
0000000000039e90 t _ZN112_$LT$mmtk_openjdk..scanning..VMScanning$u20$as$u20$mmtk..vm..scanning..Scanning$LT$mmtk_openjdk..OpenJDK$GT$$GT$22scan_vm_specific_roots17ha89904a6bc8c7433E
000000000003a2f0 t _ZN112_$LT$mmtk_openjdk..scanning..VMScanning$u20$as$u20$mmtk..vm..scanning..Scanning$LT$mmtk_openjdk..OpenJDK$GT$$GT$22scan_vm_specific_roots17hce2acc2eff43376cE
00000000001c5860 b _ZN113_$LT$mmtk_openjdk..abi..InstanceRefKlass..referent_offset..REFERENT_OFFSET$u20$as$u20$core..ops..deref..Deref$GT$5deref11__stability4LAZY17h954094d22603a7a9E
000000000009b0d0 t _ZN113_$LT$mmtk..policy..mallocspace..global..MallocSpace$LT$VM$GT$$u20$as$u20$mmtk..policy..space..Space$LT$VM$GT$$GT$14initialize_sft17hc462f82c285ffe0aE
000000000009b170 t _ZN113_$LT$mmtk..policy..mallocspace..global..MallocSpace$LT$VM$GT$$u20$as$u20$mmtk..policy..space..Space$LT$VM$GT$$GT$14reserved_pages17h7a6df29432c03af8E
000000000009b0e0 t _ZN113_$LT$mmtk..policy..mallocspace..global..MallocSpace$LT$VM$GT$$u20$as$u20$mmtk..policy..space..Space$LT$VM$GT$$GT$16address_in_space17hc6bd31e5c977a799E
000000000009b060 t _ZN113_$LT$mmtk..policy..mallocspace..global..MallocSpace$LT$VM$GT$$u20$as$u20$mmtk..policy..space..Space$LT$VM$GT$$GT$17get_page_resource17h6707c36bfcbdde7fE
000000000009b340 t _ZN113_$LT$mmtk..policy..mallocspace..global..MallocSpace$LT$VM$GT$$u20$as$u20$mmtk..policy..space..Space$LT$VM$GT$$GT$22release_multiple_pages17ha7f22ab988e2e517E
000000000009b360 t _ZN113_$LT$mmtk..policy..mallocspace..global..MallocSpace$LT$VM$GT$$u20$as$u20$mmtk..policy..space..Space$LT$VM$GT$$GT$27verify_side_metadata_sanity17h64970ae0618ceb37E
000000000009b0c0 t _ZN113_$LT$mmtk..policy..mallocspace..global..MallocSpace$LT$VM$GT$$u20$as$u20$mmtk..policy..space..Space$LT$VM$GT$$GT$6as_sft17h0bcb73c1003f3928E
000000000009b090 t _ZN113_$LT$mmtk..policy..mallocspace..global..MallocSpace$LT$VM$GT$$u20$as$u20$mmtk..policy..space..Space$LT$VM$GT$$GT$6common17h1a91fab66e759cceE
000000000009b0b0 t _ZN113_$LT$mmtk..policy..mallocspace..global..MallocSpace$LT$VM$GT$$u20$as$u20$mmtk..policy..space..Space$LT$VM$GT$$GT$8as_space17h23a96bac8ec72094E
000000000009b320 t _ZN113_$LT$mmtk..policy..mallocspace..global..MallocSpace$LT$VM$GT$$u20$as$u20$mmtk..policy..space..Space$LT$VM$GT$$GT$8get_name17h452e7515927fd27eE
00000000000872e0 t _ZN113_$LT$mmtk..util..reference_processor..RefEnqueue$LT$VM$GT$$u20$as$u20$mmtk..scheduler..work..GCWork$LT$VM$GT$$GT$7do_work17h27a32437dbd0777dE
00000000000ae590 t _ZN114_$LT$mmtk..plan..marksweep..gc_work..MSSweepChunk$LT$VM$GT$$u20$as$u20$mmtk..scheduler..work..GCWork$LT$VM$GT$$GT$7do_work17hab4fba5ac0d9541eE
00000000000ae150 t _ZN115_$LT$mmtk..plan..marksweep..gc_work..MSSweepChunks$LT$VM$GT$$u20$as$u20$mmtk..scheduler..work..GCWork$LT$VM$GT$$GT$7do_work17h6bc6e7cd41f44cfdE
000000000003aab0 t _ZN115_$LT$mmtk..policy..largeobjectspace..LargeObjectSpace$LT$VM$GT$$u20$as$u20$mmtk..policy..space..Space$LT$VM$GT$$GT$14initialize_sft17h5f741e902f51be1aE
000000000003aa90 t _ZN115_$LT$mmtk..policy..largeobjectspace..LargeObjectSpace$LT$VM$GT$$u20$as$u20$mmtk..policy..space..Space$LT$VM$GT$$GT$17get_page_resource17h9e36ba7c21827bc6E
000000000003ab40 t _ZN115_$LT$mmtk..policy..largeobjectspace..LargeObjectSpace$LT$VM$GT$$u20$as$u20$mmtk..policy..space..Space$LT$VM$GT$$GT$22release_multiple_pages17h166ab44390976202E
000000000003aa80 t _ZN115_$LT$mmtk..policy..largeobjectspace..LargeObjectSpace$LT$VM$GT$$u20$as$u20$mmtk..policy..space..Space$LT$VM$GT$$GT$6as_sft17h1abc3ddeaaa6cb3fE
000000000003ab30 t _ZN115_$LT$mmtk..policy..largeobjectspace..LargeObjectSpace$LT$VM$GT$$u20$as$u20$mmtk..policy..space..Space$LT$VM$GT$$GT$6common17h1622cf7bdd09946fE
000000000003aa70 t _ZN115_$LT$mmtk..policy..largeobjectspace..LargeObjectSpace$LT$VM$GT$$u20$as$u20$mmtk..policy..space..Space$LT$VM$GT$$GT$8as_space17h5401c5d213af07e2E
00000000000ac4b0 t _ZN115_$LT$mmtk..policy..markcompactspace..MarkCompactSpace$LT$VM$GT$$u20$as$u20$mmtk..policy..space..Space$LT$VM$GT$$GT$14initialize_sft17h17425b3465495308E
00000000000ac490 t _ZN115_$LT$mmtk..policy..markcompactspace..MarkCompactSpace$LT$VM$GT$$u20$as$u20$mmtk..policy..space..Space$LT$VM$GT$$GT$17get_page_resource17hc653437c93029fc4E
00000000000aca50 t _ZN115_$LT$mmtk..policy..markcompactspace..MarkCompactSpace$LT$VM$GT$$u20$as$u20$mmtk..policy..space..Space$LT$VM$GT$$GT$22release_multiple_pages17h2dc32ea7f85ba55eE
00000000000ac480 t _ZN115_$LT$mmtk..policy..markcompactspace..MarkCompactSpace$LT$VM$GT$$u20$as$u20$mmtk..policy..space..Space$LT$VM$GT$$GT$6as_sft17h35acc0b34c752553E
00000000000aca40 t _ZN115_$LT$mmtk..policy..markcompactspace..MarkCompactSpace$LT$VM$GT$$u20$as$u20$mmtk..policy..space..Space$LT$VM$GT$$GT$6common17h4cfe135fd5b37ed0E
00000000000ac470 t _ZN115_$LT$mmtk..policy..markcompactspace..MarkCompactSpace$LT$VM$GT$$u20$as$u20$mmtk..policy..space..Space$LT$VM$GT$$GT$8as_space17ha7dba11f50ab4a7cE
00000000001c5870 b _ZN117_$LT$mmtk_openjdk..abi..InstanceRefKlass..discovered_offset..DISCOVERED_OFFSET$u20$as$u20$core..ops..deref..Deref$GT$5deref11__stability4LAZY17h69f907d273286f80E
00000000000c44d0 t _ZN119_$LT$mmtk..vm..active_plan..SynchronizedMutatorIterator$LT$VM$GT$$u20$as$u20$core..iter..traits..iterator..Iterator$GT$4next17hd3530ad6fdb6f0faE
0000000000068bd0 t _ZN11miniz_oxide7inflate4core10decompress17h93b5a0f883c7ec23E
000000000006ad60 t _ZN11miniz_oxide7inflate4core11apply_match17h442fce3efe06cac6E
000000000006af50 t _ZN11miniz_oxide7inflate4core8transfer17ha16c3af0bcef0b6aE
000000000006b1d0 t _ZN11miniz_oxide7inflate4core9init_tree17h0d41f0968ffb458fE
00000000000dbb70 t _ZN120_$LT$mmtk..plan..markcompact..gc_work..UpdateReferences$LT$VM$GT$$u20$as$u20$mmtk..scheduler..work..GCWork$LT$VM$GT$$GT$7do_work17h8ff82440c52b7573E
00000000000d3e90 t _ZN120_$LT$mmtk..policy..immix..immixspace..PrepareBlockState$LT$VM$GT$$u20$as$u20$mmtk..scheduler..work..GCWork$LT$VM$GT$$GT$7do_work17h4a976b10631658c9E
000000000007d1e0 t _ZN121_$LT$mmtk..util..statistics..counter..event_counter..EventCounter$u20$as$u20$mmtk..util..statistics..counter..Counter$GT$10print_last17h6a71aeb2b8fde233E
000000000007cdd0 t _ZN121_$LT$mmtk..util..statistics..counter..event_counter..EventCounter$u20$as$u20$mmtk..util..statistics..counter..Counter$GT$11print_count17hb2c2ea9a72e69db3E
000000000007cf50 t _ZN121_$LT$mmtk..util..statistics..counter..event_counter..EventCounter$u20$as$u20$mmtk..util..statistics..counter..Counter$GT$11print_total17hd3de4dff3e3363b7E
000000000007d200 t _ZN121_$LT$mmtk..util..statistics..counter..event_counter..EventCounter$u20$as$u20$mmtk..util..statistics..counter..Counter$GT$12merge_phases17hd7f2bb3566cd8dc9E
000000000007cd80 t _ZN121_$LT$mmtk..util..statistics..counter..event_counter..EventCounter$u20$as$u20$mmtk..util..statistics..counter..Counter$GT$12phase_change17h563d44335a47e445E
000000000007d210 t _ZN121_$LT$mmtk..util..statistics..counter..event_counter..EventCounter$u20$as$u20$mmtk..util..statistics..counter..Counter$GT$16implicitly_start17hb0a0192dfdc8d302E
000000000007d220 t _ZN121_$LT$mmtk..util..statistics..counter..event_counter..EventCounter$u20$as$u20$mmtk..util..statistics..counter..Counter$GT$4name17hedb4c896ec64e387E
000000000007cd30 t _ZN121_$LT$mmtk..util..statistics..counter..event_counter..EventCounter$u20$as$u20$mmtk..util..statistics..counter..Counter$GT$4stop17he70b40d0ad17b692E
000000000007cd10 t _ZN121_$LT$mmtk..util..statistics..counter..event_counter..EventCounter$u20$as$u20$mmtk..util..statistics..counter..Counter$GT$5start17h91ab79a1035408d6E
000000000007cea0 t _ZN121_$LT$mmtk..util..statistics..counter..event_counter..EventCounter$u20$as$u20$mmtk..util..statistics..counter..Counter$GT$9get_total17hd89b35aaec0345ecE
000000000007d120 t _ZN121_$LT$mmtk..util..statistics..counter..event_counter..EventCounter$u20$as$u20$mmtk..util..statistics..counter..Counter$GT$9print_max17hf05e836909031c67E
000000000007d060 t _ZN121_$LT$mmtk..util..statistics..counter..event_counter..EventCounter$u20$as$u20$mmtk..util..statistics..counter..Counter$GT$9print_min17h6f8d0f624cbd3219E
000000000008c050 t _ZN124_$LT$mmtk..scheduler..gc_work..ProcessEdgesWorkRootsWorkFactory$LT$E$GT$$u20$as$u20$mmtk..vm..scanning..RootsWorkFactory$GT$30create_process_edge_roots_work17h00d3c6309c5b44dbE
000000000008c2d0 t _ZN124_$LT$mmtk..scheduler..gc_work..ProcessEdgesWorkRootsWorkFactory$LT$E$GT$$u20$as$u20$mmtk..vm..scanning..RootsWorkFactory$GT$30create_process_edge_roots_work17h05ef2cfd4f528dd9E
000000000008c500 t _ZN124_$LT$mmtk..scheduler..gc_work..ProcessEdgesWorkRootsWorkFactory$LT$E$GT$$u20$as$u20$mmtk..vm..scanning..RootsWorkFactory$GT$30create_process_edge_roots_work17h08c0405d443815ceE
000000000008c730 t _ZN124_$LT$mmtk..scheduler..gc_work..ProcessEdgesWorkRootsWorkFactory$LT$E$GT$$u20$as$u20$mmtk..vm..scanning..RootsWorkFactory$GT$30create_process_edge_roots_work17h4c5226f49e004b0cE
000000000008c960 t _ZN124_$LT$mmtk..scheduler..gc_work..ProcessEdgesWorkRootsWorkFactory$LT$E$GT$$u20$as$u20$mmtk..vm..scanning..RootsWorkFactory$GT$30create_process_edge_roots_work17h53cbd3acaa98b46aE
000000000008cb90 t _ZN124_$LT$mmtk..scheduler..gc_work..ProcessEdgesWorkRootsWorkFactory$LT$E$GT$$u20$as$u20$mmtk..vm..scanning..RootsWorkFactory$GT$30create_process_edge_roots_work17h57c7a8c32bf60a55E
000000000008cdc0 t _ZN124_$LT$mmtk..scheduler..gc_work..ProcessEdgesWorkRootsWorkFactory$LT$E$GT$$u20$as$u20$mmtk..vm..scanning..RootsWorkFactory$GT$30create_process_edge_roots_work17h63c51f81355623dcE
000000000008cfb0 t _ZN124_$LT$mmtk..scheduler..gc_work..ProcessEdgesWorkRootsWorkFactory$LT$E$GT$$u20$as$u20$mmtk..vm..scanning..RootsWorkFactory$GT$30create_process_edge_roots_work17h6f601567f7bc06f6E
000000000008d1e0 t _ZN124_$LT$mmtk..scheduler..gc_work..ProcessEdgesWorkRootsWorkFactory$LT$E$GT$$u20$as$u20$mmtk..vm..scanning..RootsWorkFactory$GT$30create_process_edge_roots_work17h7736fa07aa96ab71E
000000000008d410 t _ZN124_$LT$mmtk..scheduler..gc_work..ProcessEdgesWorkRootsWorkFactory$LT$E$GT$$u20$as$u20$mmtk..vm..scanning..RootsWorkFactory$GT$30create_process_edge_roots_work17hbd0a23c94260890aE
000000000008d640 t _ZN124_$LT$mmtk..scheduler..gc_work..ProcessEdgesWorkRootsWorkFactory$LT$E$GT$$u20$as$u20$mmtk..vm..scanning..RootsWorkFactory$GT$30create_process_edge_roots_work17hc1ec7aa512ed7fcaE
0000000000078df0 t _ZN124_$LT$mmtk..util..heap..layout..fragmented_mapper..FragmentedMapper$u20$as$u20$mmtk..util..heap..layout..mmapper..Mmapper$GT$13ensure_mapped17hebc929061a9224ffE
0000000000078410 t _ZN124_$LT$mmtk..util..heap..layout..fragmented_mapper..FragmentedMapper$u20$as$u20$mmtk..util..heap..layout..mmapper..Mmapper$GT$14mark_as_mapped17h0ca02567ebc18354E
0000000000078980 t _ZN124_$LT$mmtk..util..heap..layout..fragmented_mapper..FragmentedMapper$u20$as$u20$mmtk..util..heap..layout..mmapper..Mmapper$GT$24quarantine_address_range17habec2912f4abe746E
00000000000af450 t _ZN127_$LT$mmtk..util..alloc..bumpallocator..BumpAllocator$LT$VM$GT$$u20$as$u20$mmtk..util..alloc..allocator..Allocator$LT$VM$GT$$GT$15alloc_slow_once17hb0e6dbbd4a128f39E
00000000000af6d0 t _ZN127_$LT$mmtk..util..alloc..bumpallocator..BumpAllocator$LT$VM$GT$$u20$as$u20$mmtk..util..alloc..allocator..Allocator$LT$VM$GT$$GT$28does_thread_local_allocation17hd258b6529c0dc904E
00000000000af510 t _ZN127_$LT$mmtk..util..alloc..bumpallocator..BumpAllocator$LT$VM$GT$$u20$as$u20$mmtk..util..alloc..allocator..Allocator$LT$VM$GT$$GT$30alloc_slow_once_precise_stress17h986e3cf6f4770d31E
00000000000af6e0 t _ZN127_$LT$mmtk..util..alloc..bumpallocator..BumpAllocator$LT$VM$GT$$u20$as$u20$mmtk..util..alloc..allocator..Allocator$LT$VM$GT$$GT$35get_thread_local_buffer_granularity17h4171f6aa202cfcb5E
00000000000af6f0 t _ZN127_$LT$mmtk..util..alloc..bumpallocator..BumpAllocator$LT$VM$GT$$u20$as$u20$mmtk..util..alloc..allocator..Allocator$LT$VM$GT$$GT$5alloc17hb3b73faccef7a30eE
00000000000af740 t _ZN127_$LT$mmtk..util..alloc..bumpallocator..BumpAllocator$LT$VM$GT$$u20$as$u20$mmtk..util..alloc..allocator..Allocator$LT$VM$GT$$GT$7get_tls17ha62d7816f00c59fcE
00000000000af6c0 t _ZN127_$LT$mmtk..util..alloc..bumpallocator..BumpAllocator$LT$VM$GT$$u20$as$u20$mmtk..util..alloc..allocator..Allocator$LT$VM$GT$$GT$8get_plan17h6207477ed4c7c3ceE
00000000000af6b0 t _ZN127_$LT$mmtk..util..alloc..bumpallocator..BumpAllocator$LT$VM$GT$$u20$as$u20$mmtk..util..alloc..allocator..Allocator$LT$VM$GT$$GT$9get_space17hd710d0061af3a74cE
00000000000eecc0 t _ZN128_$LT$mmtk_openjdk..gc_work..ScanUniverseRoots$LT$F$GT$$u20$as$u20$mmtk..scheduler..work..GCWork$LT$mmtk_openjdk..OpenJDK$GT$$GT$7do_work17h00ad0b7d036b4768E
00000000000eece0 t _ZN128_$LT$mmtk_openjdk..gc_work..ScanUniverseRoots$LT$F$GT$$u20$as$u20$mmtk..scheduler..work..GCWork$LT$mmtk_openjdk..OpenJDK$GT$$GT$7do_work17h126dc31b6634c4d1E
00000000000eed00 t _ZN128_$LT$mmtk_openjdk..gc_work..ScanUniverseRoots$LT$F$GT$$u20$as$u20$mmtk..scheduler..work..GCWork$LT$mmtk_openjdk..OpenJDK$GT$$GT$7do_work17h58a43435b726b4caE
00000000000eed20 t _ZN128_$LT$mmtk_openjdk..gc_work..ScanUniverseRoots$LT$F$GT$$u20$as$u20$mmtk..scheduler..work..GCWork$LT$mmtk_openjdk..OpenJDK$GT$$GT$7do_work17h5a3d8aef577f905fE
00000000000eed40 t _ZN128_$LT$mmtk_openjdk..gc_work..ScanUniverseRoots$LT$F$GT$$u20$as$u20$mmtk..scheduler..work..GCWork$LT$mmtk_openjdk..OpenJDK$GT$$GT$7do_work17h828696b8d0e5ecb7E
00000000000eed60 t _ZN128_$LT$mmtk_openjdk..gc_work..ScanUniverseRoots$LT$F$GT$$u20$as$u20$mmtk..scheduler..work..GCWork$LT$mmtk_openjdk..OpenJDK$GT$$GT$7do_work17h9a250fb15128b3e9E
00000000000eed80 t _ZN128_$LT$mmtk_openjdk..gc_work..ScanUniverseRoots$LT$F$GT$$u20$as$u20$mmtk..scheduler..work..GCWork$LT$mmtk_openjdk..OpenJDK$GT$$GT$7do_work17hb27e82f30e753aebE
00000000000eeda0 t _ZN128_$LT$mmtk_openjdk..gc_work..ScanUniverseRoots$LT$F$GT$$u20$as$u20$mmtk..scheduler..work..GCWork$LT$mmtk_openjdk..OpenJDK$GT$$GT$7do_work17hc9fa77cdc1dabe72E
00000000000eedc0 t _ZN128_$LT$mmtk_openjdk..gc_work..ScanUniverseRoots$LT$F$GT$$u20$as$u20$mmtk..scheduler..work..GCWork$LT$mmtk_openjdk..OpenJDK$GT$$GT$7do_work17hd3ea296787860ad1E
00000000000eede0 t _ZN128_$LT$mmtk_openjdk..gc_work..ScanUniverseRoots$LT$F$GT$$u20$as$u20$mmtk..scheduler..work..GCWork$LT$mmtk_openjdk..OpenJDK$GT$$GT$7do_work17hd6c1e19cc669547dE
00000000000eee00 t _ZN128_$LT$mmtk_openjdk..gc_work..ScanUniverseRoots$LT$F$GT$$u20$as$u20$mmtk..scheduler..work..GCWork$LT$mmtk_openjdk..OpenJDK$GT$$GT$7do_work17hf3e674972573dd63E
00000000000efa80 t _ZN128_$LT$mmtk_openjdk..gc_work..ScanVMThreadRoots$LT$F$GT$$u20$as$u20$mmtk..scheduler..work..GCWork$LT$mmtk_openjdk..OpenJDK$GT$$GT$7do_work17h1600083dcc1fc3d5E
00000000000efaa0 t _ZN128_$LT$mmtk_openjdk..gc_work..ScanVMThreadRoots$LT$F$GT$$u20$as$u20$mmtk..scheduler..work..GCWork$LT$mmtk_openjdk..OpenJDK$GT$$GT$7do_work17h4cf857ae469dd528E
00000000000efac0 t _ZN128_$LT$mmtk_openjdk..gc_work..ScanVMThreadRoots$LT$F$GT$$u20$as$u20$mmtk..scheduler..work..GCWork$LT$mmtk_openjdk..OpenJDK$GT$$GT$7do_work17h53a13ae6735ba843E
00000000000efae0 t _ZN128_$LT$mmtk_openjdk..gc_work..ScanVMThreadRoots$LT$F$GT$$u20$as$u20$mmtk..scheduler..work..GCWork$LT$mmtk_openjdk..OpenJDK$GT$$GT$7do_work17h66da1e8e849d2378E
00000000000efb00 t _ZN128_$LT$mmtk_openjdk..gc_work..ScanVMThreadRoots$LT$F$GT$$u20$as$u20$mmtk..scheduler..work..GCWork$LT$mmtk_openjdk..OpenJDK$GT$$GT$7do_work17h68684a92a134cd73E
00000000000efb20 t _ZN128_$LT$mmtk_openjdk..gc_work..ScanVMThreadRoots$LT$F$GT$$u20$as$u20$mmtk..scheduler..work..GCWork$LT$mmtk_openjdk..OpenJDK$GT$$GT$7do_work17h89aca65e6e97472eE
00000000000efb40 t _ZN128_$LT$mmtk_openjdk..gc_work..ScanVMThreadRoots$LT$F$GT$$u20$as$u20$mmtk..scheduler..work..GCWork$LT$mmtk_openjdk..OpenJDK$GT$$GT$7do_work17h93ce551e2904d541E
00000000000efb60 t _ZN128_$LT$mmtk_openjdk..gc_work..ScanVMThreadRoots$LT$F$GT$$u20$as$u20$mmtk..scheduler..work..GCWork$LT$mmtk_openjdk..OpenJDK$GT$$GT$7do_work17ha49345e0b76dd468E
00000000000efb80 t _ZN128_$LT$mmtk_openjdk..gc_work..ScanVMThreadRoots$LT$F$GT$$u20$as$u20$mmtk..scheduler..work..GCWork$LT$mmtk_openjdk..OpenJDK$GT$$GT$7do_work17hbe0464f23800989dE
00000000000efba0 t _ZN128_$LT$mmtk_openjdk..gc_work..ScanVMThreadRoots$LT$F$GT$$u20$as$u20$mmtk..scheduler..work..GCWork$LT$mmtk_openjdk..OpenJDK$GT$$GT$7do_work17hf47e4d89cfd6cce1E
00000000000efbc0 t _ZN128_$LT$mmtk_openjdk..gc_work..ScanVMThreadRoots$LT$F$GT$$u20$as$u20$mmtk..scheduler..work..GCWork$LT$mmtk_openjdk..OpenJDK$GT$$GT$7do_work17hfa0eb27072d577bfE
000000000007d8f0 t _ZN128_$LT$mmtk..util..statistics..counter..long_counter..LongCounter$LT$T$GT$$u20$as$u20$mmtk..util..statistics..counter..Counter$GT$10print_last17h5a1a30d567a9b749E
000000000007d420 t _ZN128_$LT$mmtk..util..statistics..counter..long_counter..LongCounter$LT$T$GT$$u20$as$u20$mmtk..util..statistics..counter..Counter$GT$11print_count17h8d6b4cb7d3b1e281E
000000000007d5b0 t _ZN128_$LT$mmtk..util..statistics..counter..long_counter..LongCounter$LT$T$GT$$u20$as$u20$mmtk..util..statistics..counter..Counter$GT$11print_total17hd50968509d301a0cE
000000000007da20 t _ZN128_$LT$mmtk..util..statistics..counter..long_counter..LongCounter$LT$T$GT$$u20$as$u20$mmtk..util..statistics..counter..Counter$GT$12merge_phases17h9c5c7758dbfa1cf2E
000000000007d340 t _ZN128_$LT$mmtk..util..statistics..counter..long_counter..LongCounter$LT$T$GT$$u20$as$u20$mmtk..util..statistics..counter..Counter$GT$12phase_change17hc6edd1df7f883007E
000000000007da30 t _ZN128_$LT$mmtk..util..statistics..counter..long_counter..LongCounter$LT$T$GT$$u20$as$u20$mmtk..util..statistics..counter..Counter$GT$16implicitly_start17h38d091059400e97cE
000000000007da40 t _ZN128_$LT$mmtk..util..statistics..counter..long_counter..LongCounter$LT$T$GT$$u20$as$u20$mmtk..util..statistics..counter..Counter$GT$4name17h98ab5af3398c2464E
000000000007d270 t _ZN128_$LT$mmtk..util..statistics..counter..long_counter..LongCounter$LT$T$GT$$u20$as$u20$mmtk..util..statistics..counter..Counter$GT$4stop17hb92defb6fe688300E
000000000007d230 t _ZN128_$LT$mmtk..util..statistics..counter..long_counter..LongCounter$LT$T$GT$$u20$as$u20$mmtk..util..statistics..counter..Counter$GT$5start17h2efdc6cc1cf645e3E
000000000007d540 t _ZN128_$LT$mmtk..util..statistics..counter..long_counter..LongCounter$LT$T$GT$$u20$as$u20$mmtk..util..statistics..counter..Counter$GT$9get_total17h6baf0b87c0ba8139E
000000000007d7e0 t _ZN128_$LT$mmtk..util..statistics..counter..long_counter..LongCounter$LT$T$GT$$u20$as$u20$mmtk..util..statistics..counter..Counter$GT$9print_max17h7a515a3e54e87452E
000000000007d6d0 t _ZN128_$LT$mmtk..util..statistics..counter..long_counter..LongCounter$LT$T$GT$$u20$as$u20$mmtk..util..statistics..counter..Counter$GT$9print_min17hdbd812fa3c8ef705E
00000000000ef3a0 t _ZN129_$LT$mmtk_openjdk..gc_work..ScanAOTLoaderRoots$LT$F$GT$$u20$as$u20$mmtk..scheduler..work..GCWork$LT$mmtk_openjdk..OpenJDK$GT$$GT$7do_work17h16016843164f5aaeE
00000000000ef3c0 t _ZN129_$LT$mmtk_openjdk..gc_work..ScanAOTLoaderRoots$LT$F$GT$$u20$as$u20$mmtk..scheduler..work..GCWork$LT$mmtk_openjdk..OpenJDK$GT$$GT$7do_work17h21605b36df2e60f4E
00000000000ef3e0 t _ZN129_$LT$mmtk_openjdk..gc_work..ScanAOTLoaderRoots$LT$F$GT$$u20$as$u20$mmtk..scheduler..work..GCWork$LT$mmtk_openjdk..OpenJDK$GT$$GT$7do_work17h2368a9dbf29f95b1E
00000000000ef400 t _ZN129_$LT$mmtk_openjdk..gc_work..ScanAOTLoaderRoots$LT$F$GT$$u20$as$u20$mmtk..scheduler..work..GCWork$LT$mmtk_openjdk..OpenJDK$GT$$GT$7do_work17h546203c51f2c18e8E
00000000000ef420 t _ZN129_$LT$mmtk_openjdk..gc_work..ScanAOTLoaderRoots$LT$F$GT$$u20$as$u20$mmtk..scheduler..work..GCWork$LT$mmtk_openjdk..OpenJDK$GT$$GT$7do_work17h6cb9dde92d94361fE
00000000000ef440 t _ZN129_$LT$mmtk_openjdk..gc_work..ScanAOTLoaderRoots$LT$F$GT$$u20$as$u20$mmtk..scheduler..work..GCWork$LT$mmtk_openjdk..OpenJDK$GT$$GT$7do_work17h800bdae824f5510eE
00000000000ef460 t _ZN129_$LT$mmtk_openjdk..gc_work..ScanAOTLoaderRoots$LT$F$GT$$u20$as$u20$mmtk..scheduler..work..GCWork$LT$mmtk_openjdk..OpenJDK$GT$$GT$7do_work17h902dc230fb01c99eE
00000000000ef480 t _ZN129_$LT$mmtk_openjdk..gc_work..ScanAOTLoaderRoots$LT$F$GT$$u20$as$u20$mmtk..scheduler..work..GCWork$LT$mmtk_openjdk..OpenJDK$GT$$GT$7do_work17h9e968fc18ae7f2e7E
00000000000ef4a0 t _ZN129_$LT$mmtk_openjdk..gc_work..ScanAOTLoaderRoots$LT$F$GT$$u20$as$u20$mmtk..scheduler..work..GCWork$LT$mmtk_openjdk..OpenJDK$GT$$GT$7do_work17hd0110f38046a96dcE
00000000000ef4c0 t _ZN129_$LT$mmtk_openjdk..gc_work..ScanAOTLoaderRoots$LT$F$GT$$u20$as$u20$mmtk..scheduler..work..GCWork$LT$mmtk_openjdk..OpenJDK$GT$$GT$7do_work17hd2e8357ac476d86aE
00000000000ef4e0 t _ZN129_$LT$mmtk_openjdk..gc_work..ScanAOTLoaderRoots$LT$F$GT$$u20$as$u20$mmtk..scheduler..work..GCWork$LT$mmtk_openjdk..OpenJDK$GT$$GT$7do_work17hdc9082cb3e400c1fE
00000000000ecac0 t _ZN129_$LT$mmtk_openjdk..gc_work..ScanCodeCacheRoots$LT$F$GT$$u20$as$u20$mmtk..scheduler..work..GCWork$LT$mmtk_openjdk..OpenJDK$GT$$GT$7do_work17h29b2b85bc531cfa0E
00000000000ece20 t _ZN129_$LT$mmtk_openjdk..gc_work..ScanCodeCacheRoots$LT$F$GT$$u20$as$u20$mmtk..scheduler..work..GCWork$LT$mmtk_openjdk..OpenJDK$GT$$GT$7do_work17h2e07dce33a2688cbE
00000000000ed130 t _ZN129_$LT$mmtk_openjdk..gc_work..ScanCodeCacheRoots$LT$F$GT$$u20$as$u20$mmtk..scheduler..work..GCWork$LT$mmtk_openjdk..OpenJDK$GT$$GT$7do_work17h3d989c41deaf21afE
00000000000ed440 t _ZN129_$LT$mmtk_openjdk..gc_work..ScanCodeCacheRoots$LT$F$GT$$u20$as$u20$mmtk..scheduler..work..GCWork$LT$mmtk_openjdk..OpenJDK$GT$$GT$7do_work17h43ead8c148ac46daE
00000000000ed750 t _ZN129_$LT$mmtk_openjdk..gc_work..ScanCodeCacheRoots$LT$F$GT$$u20$as$u20$mmtk..scheduler..work..GCWork$LT$mmtk_openjdk..OpenJDK$GT$$GT$7do_work17h7396b146e20cad23E
00000000000eda60 t _ZN129_$LT$mmtk_openjdk..gc_work..ScanCodeCacheRoots$LT$F$GT$$u20$as$u20$mmtk..scheduler..work..GCWork$LT$mmtk_openjdk..OpenJDK$GT$$GT$7do_work17h741149e91b9a47a0E
00000000000edd70 t _ZN129_$LT$mmtk_openjdk..gc_work..ScanCodeCacheRoots$LT$F$GT$$u20$as$u20$mmtk..scheduler..work..GCWork$LT$mmtk_openjdk..OpenJDK$GT$$GT$7do_work17h8d6fb7a2842d16a4E
00000000000ee080 t _ZN129_$LT$mmtk_openjdk..gc_work..ScanCodeCacheRoots$LT$F$GT$$u20$as$u20$mmtk..scheduler..work..GCWork$LT$mmtk_openjdk..OpenJDK$GT$$GT$7do_work17h959e3062b6f9b764E
00000000000ee390 t _ZN129_$LT$mmtk_openjdk..gc_work..ScanCodeCacheRoots$LT$F$GT$$u20$as$u20$mmtk..scheduler..work..GCWork$LT$mmtk_openjdk..OpenJDK$GT$$GT$7do_work17hc8f8c9e3092b500bE
00000000000ee6a0 t _ZN129_$LT$mmtk_openjdk..gc_work..ScanCodeCacheRoots$LT$F$GT$$u20$as$u20$mmtk..scheduler..work..GCWork$LT$mmtk_openjdk..OpenJDK$GT$$GT$7do_work17he7697dc3f7fe60b6E
00000000000ee9b0 t _ZN129_$LT$mmtk_openjdk..gc_work..ScanCodeCacheRoots$LT$F$GT$$u20$as$u20$mmtk..scheduler..work..GCWork$LT$mmtk_openjdk..OpenJDK$GT$$GT$7do_work17hef52649b8401210fE
00000000001104c0 t _ZN12aho_corasick11ahocorasick18AhoCorasickBuilder15build_with_size17hdbc8f52c3ad8c8c6E
000000000010f760 t _ZN12aho_corasick11ahocorasick20AhoCorasick$LT$S$GT$4find17h6413361c0b05c74aE
0000000000103790 t _ZN12aho_corasick3dfa23nfa_next_state_memoized17hac1ff0ae4ae399e5E
0000000000102050 t _ZN12aho_corasick3dfa7Builder5build17hde45af613ddcf9a9E
0000000000106e70 t _ZN12aho_corasick3nfa12NFA$LT$S$GT$12copy_matches17h307343b88686ad2cE
00000000001057f0 t _ZN12aho_corasick3nfa14State$LT$S$GT$14set_next_state17hd8b8396843069c31E
00000000001058f0 t _ZN12aho_corasick3nfa17Compiler$LT$S$GT$20add_start_state_loop17h63e4e04242d6b8c8E
0000000000105b00 t _ZN12aho_corasick3nfa17Compiler$LT$S$GT$22close_start_state_loop17h52a1bd02163c338eE
0000000000106380 t _ZN12aho_corasick3nfa17Compiler$LT$S$GT$33fill_failure_transitions_leftmost17hd18be294d687236fE
0000000000105c40 t _ZN12aho_corasick3nfa17Compiler$LT$S$GT$33fill_failure_transitions_standard17hdb662be05725caceE
00000000001052b0 t _ZN12aho_corasick3nfa17Compiler$LT$S$GT$3new17h0ecd361fed390f72E
00000000001055b0 t _ZN12aho_corasick3nfa17Compiler$LT$S$GT$9add_state17h8d19d7b5d852801aE
000000000004d670 t _ZN12aho_corasick6packed3api7Builder5build17h1d911586205660e0E
0000000000100190 t _ZN12aho_corasick6packed3api8Searcher4find17h5b452e10089a9a96E
00000000000437d0 t _ZN12aho_corasick6packed5teddy7runtime16TeddyFat1Mask2567find_at17h3cc46fc5710b30bcE
0000000000045e80 t _ZN12aho_corasick6packed5teddy7runtime16TeddyFat2Mask2567find_at17h4b8431a2064873b3E
00000000000486b0 t _ZN12aho_corasick6packed5teddy7runtime16TeddyFat3Mask2567find_at17h89c4c4563eebb150E
00000000000420c0 t _ZN12aho_corasick6packed5teddy7runtime17TeddySlim1Mask1287find_at17hccc390a044cc419eE
0000000000042900 t _ZN12aho_corasick6packed5teddy7runtime17TeddySlim1Mask2567find_at17h1701301c60ea7927E
0000000000044670 t _ZN12aho_corasick6packed5teddy7runtime17TeddySlim2Mask1287find_at17hf7e7cbd3507eab29E
0000000000044f40 t _ZN12aho_corasick6packed5teddy7runtime17TeddySlim2Mask2567find_at17h25283c94ea099a92E
0000000000046db0 t _ZN12aho_corasick6packed5teddy7runtime17TeddySlim3Mask1287find_at17hac5cc668404b99d3E
00000000000476e0 t _ZN12aho_corasick6packed5teddy7runtime17TeddySlim3Mask2567find_at17h901d882ba2d11d09E
0000000000021270 t _ZN12aho_corasick6packed5teddy7runtime5Teddy13verify_bucket15match_from_span17hd61ee7946aad3592E
0000000000041ec0 t _ZN12aho_corasick6packed5teddy7runtime5Teddy7find_at17hf089733a10704b43E
0000000000041460 t _ZN12aho_corasick6packed7pattern8Patterns14max_pattern_id17h838496957cc4fc31E
0000000000041350 t _ZN12aho_corasick6packed7pattern8Patterns3add17h6ff48b52a465c046E
00000000000210e0 t _ZN12aho_corasick6packed9rabinkarp9RabinKarp6verify17hf3980f8b1efe5f7fE
0000000000040f50 t _ZN12aho_corasick6packed9rabinkarp9RabinKarp7find_at17h7597c24bb26df295E
0000000000100d50 t _ZN12aho_corasick9automaton9Automaton25leftmost_find_at_no_state17h1bcd8621689c0ef2E
00000000001011b0 t _ZN12aho_corasick9automaton9Automaton25leftmost_find_at_no_state17h21c739fefa40252bE
0000000000101660 t _ZN12aho_corasick9automaton9Automaton25leftmost_find_at_no_state17h44a45cb889247bdcE
0000000000101b00 t _ZN12aho_corasick9automaton9Automaton25leftmost_find_at_no_state17hab6b5a01d80e0c3bE
0000000000104d50 t _ZN12aho_corasick9automaton9Automaton25leftmost_find_at_no_state17hb94f562e37b85e55E
000000000004c960 t _ZN12aho_corasick9prefilter7Builder3add17h8f04cb9e8e9cc2b6E
000000000004a3a0 t _ZN12aho_corasick9prefilter7Builder5build17h7c8bcca803bc5b8aE
000000000004c410 t _ZN12aho_corasick9prefilter9Prefilter23reports_false_positives17h06e572f972759d5fE
000000000004c940 t _ZN12aho_corasick9prefilter9Prefilter23reports_false_positives17h11697b15ef3bb2d9E
000000000004bcb0 t _ZN12aho_corasick9prefilter9Prefilter23reports_false_positives17h2518e474f141770dE
000000000004c590 t _ZN12aho_corasick9prefilter9Prefilter23reports_false_positives17h6665514ec3ff02b7E
000000000004bfe0 t _ZN12aho_corasick9prefilter9Prefilter23reports_false_positives17ha8b4a88e88981a99E
000000000004c950 t _ZN12aho_corasick9prefilter9Prefilter28looks_for_non_start_of_match17h24a9db9f230d9a38E
000000000004c5a0 t _ZN12aho_corasick9prefilter9Prefilter28looks_for_non_start_of_match17h55468c7c1d940d17E
000000000004c750 t _ZN12aho_corasick9prefilter9Prefilter28looks_for_non_start_of_match17h565581e7c19b9a8fE
000000000004bae0 t _ZN12aho_corasick9prefilter9Prefilter28looks_for_non_start_of_match17h92b11e4bd22afbb6E
000000000017fd68 r _ZN12mmtk_openjdk10build_info22BINDING_VERSION_STRING17h44cd9164ec135991E
00000000000b1920 t _ZN12mmtk_openjdk10collection19report_mutator_stop17h259fb7da4531badcE
00000000000b0de0 t _ZN12mmtk_openjdk10collection19report_mutator_stop17h638abf0a29812fb5E
00000000000b1260 t _ZN12mmtk_openjdk10collection19report_mutator_stop17h6f2297c47bee87aeE
00000000000b1b60 t _ZN12mmtk_openjdk10collection19report_mutator_stop17hae4f4b45fcd9d2feE
00000000000b1fe0 t _ZN12mmtk_openjdk10collection19report_mutator_stop17hcc214524c8286381E
00000000000b16e0 t _ZN12mmtk_openjdk10collection19report_mutator_stop17hd39c6bf2bde062c3E
00000000000b2220 t _ZN12mmtk_openjdk10collection19report_mutator_stop17hdb9c1db1ad5d8e30E
00000000000b1020 t _ZN12mmtk_openjdk10collection19report_mutator_stop17he28a1830a55f183dE
00000000000b1da0 t _ZN12mmtk_openjdk10collection19report_mutator_stop17hecad749994fa47f6E
00000000000b14a0 t _ZN12mmtk_openjdk10collection19report_mutator_stop17hef7f5416984bd419E
00000000000319c0 t _ZN12mmtk_openjdk15object_scanning53_$LT$impl$u20$mmtk_openjdk..abi..InstanceRefKlass$GT$21process_ref_as_strong17h390f3a2ede6c022eE
0000000000032250 t _ZN12mmtk_openjdk15object_scanning53_$LT$impl$u20$mmtk_openjdk..abi..InstanceRefKlass$GT$21process_ref_as_strong17h3ae18c21a6f06fd4E
0000000000032ae0 t _ZN12mmtk_openjdk15object_scanning53_$LT$impl$u20$mmtk_openjdk..abi..InstanceRefKlass$GT$21process_ref_as_strong17h4939561d0c47e081E
0000000000033370 t _ZN12mmtk_openjdk15object_scanning53_$LT$impl$u20$mmtk_openjdk..abi..InstanceRefKlass$GT$21process_ref_as_strong17h4be52c03aa2a77e8E
0000000000033c00 t _ZN12mmtk_openjdk15object_scanning53_$LT$impl$u20$mmtk_openjdk..abi..InstanceRefKlass$GT$21process_ref_as_strong17h7504faf0d373d0b5E
0000000000034490 t _ZN12mmtk_openjdk15object_scanning53_$LT$impl$u20$mmtk_openjdk..abi..InstanceRefKlass$GT$21process_ref_as_strong17h76fff4208fc9f253E
0000000000034d20 t _ZN12mmtk_openjdk15object_scanning53_$LT$impl$u20$mmtk_openjdk..abi..InstanceRefKlass$GT$21process_ref_as_strong17h8edb3e8fe8183382E
0000000000035530 t _ZN12mmtk_openjdk15object_scanning53_$LT$impl$u20$mmtk_openjdk..abi..InstanceRefKlass$GT$21process_ref_as_strong17hba6d7f7df24d3d6eE
0000000000035dc0 t _ZN12mmtk_openjdk15object_scanning53_$LT$impl$u20$mmtk_openjdk..abi..InstanceRefKlass$GT$21process_ref_as_strong17hcd7e22a4d5cb2833E
0000000000036650 t _ZN12mmtk_openjdk15object_scanning53_$LT$impl$u20$mmtk_openjdk..abi..InstanceRefKlass$GT$21process_ref_as_strong17hf2dba503dd57871bE
0000000000036ee0 t _ZN12mmtk_openjdk15object_scanning53_$LT$impl$u20$mmtk_openjdk..abi..InstanceRefKlass$GT$21process_ref_as_strong17hff3b5740b9bc5884E
00000000001c5a60 b _ZN12mmtk_openjdk16MMTK_INITIALIZED17h28fd89f64de29497E.0.0
00000000001c5830 b _ZN12mmtk_openjdk21CODE_CACHE_ROOTS_SIZE17hea134b2fcb4f0a9aE
00000000001c4338 d _ZN12mmtk_openjdk3api10NO_BARRIER17h2249cb9362c4782bE
0000000000000070 b _ZN12mmtk_openjdk3api13NMETHOD_SLOTS7__getit5__KEY17h6733837189b6ca71E
00000000001c4358 d _ZN12mmtk_openjdk3api14OBJECT_BARRIER17h8cfe8ae293d1144bE
000000000017fce0 r _ZN12mmtk_openjdk7BUILDER17ha381307ef5123f26E
00000000001c5828 b _ZN12mmtk_openjdk7UPCALLS17h80cb473ec5235f82E
0000000000037770 t _ZN12mmtk_openjdk8scanning29report_edges_and_renew_buffer17h05fa125c16c6bae2E
00000000000377d0 t _ZN12mmtk_openjdk8scanning29report_edges_and_renew_buffer17h261d05e0413f56b9E
0000000000037830 t _ZN12mmtk_openjdk8scanning29report_edges_and_renew_buffer17h36a890fae728041cE
0000000000037890 t _ZN12mmtk_openjdk8scanning29report_edges_and_renew_buffer17h4654395e5d1e995fE
00000000000378f0 t _ZN12mmtk_openjdk8scanning29report_edges_and_renew_buffer17h597400bd616f3139E
0000000000037950 t _ZN12mmtk_openjdk8scanning29report_edges_and_renew_buffer17h7cb7935a81851156E
00000000000379b0 t _ZN12mmtk_openjdk8scanning29report_edges_and_renew_buffer17h8c3af96d8a57edfbE
0000000000037a10 t _ZN12mmtk_openjdk8scanning29report_edges_and_renew_buffer17ha85bd16d1649e8eaE
0000000000037a70 t _ZN12mmtk_openjdk8scanning29report_edges_and_renew_buffer17hab82d7dd8cc0d765E
0000000000037ad0 t _ZN12mmtk_openjdk8scanning29report_edges_and_renew_buffer17hcae214594b8d3aecE
0000000000037b30 t _ZN12mmtk_openjdk8scanning29report_edges_and_renew_buffer17hcf7334e680a9615dE
00000000000f6e90 t _ZN12panic_unwind5dwarf2eh20read_encoded_pointer17h007f72f830736d3bE
00000000000f7050 t _ZN12panic_unwind8real_imp14find_eh_action28_$u7b$$u7b$closure$u7d$$u7d$17h61b96bebf04da901E
00000000000f7030 t _ZN12panic_unwind8real_imp14find_eh_action28_$u7b$$u7b$closure$u7d$$u7d$17h8463e62a0ed9d9b5E
00000000000f70e0 t _ZN12panic_unwind8real_imp5panic17exception_cleanup17hc1340381047010f3E
0000000000133af0 t _ZN12regex_syntax17is_word_character17h5a442bc3e7b3bb9aE
000000000012bd40 t _ZN12regex_syntax3ast13ClassSetUnion4push17he0283aaf6fec15bfE
000000000012c830 t _ZN12regex_syntax3ast13ClassSetUnion9into_item17hfbe2f02ec666f8eeE
00000000001241c0 t _ZN12regex_syntax3ast5parse14specialize_err17h3bc0b04e2f35752bE
000000000011e760 t _ZN12regex_syntax3ast5parse16ParserI$LT$P$GT$10bump_space17he8069dbce446b9f3E
0000000000129980 t _ZN12regex_syntax3ast5parse16ParserI$LT$P$GT$10parse_flag17h0bc088c68b3a624fE
0000000000127240 t _ZN12regex_syntax3ast5parse16ParserI$LT$P$GT$10peek_space17h079494e187fdf7dfE
0000000000120d60 t _ZN12regex_syntax3ast5parse16ParserI$LT$P$GT$10push_group17ha87c7fe0dd6694bdE
0000000000129190 t _ZN12regex_syntax3ast5parse16ParserI$LT$P$GT$11parse_flags17hc71475a2f2a0b27cE
0000000000127960 t _ZN12regex_syntax3ast5parse16ParserI$LT$P$GT$11parse_group17h873f556497426cb2E
0000000000129a90 t _ZN12regex_syntax3ast5parse16ParserI$LT$P$GT$11parse_octal17h8ab05995109c08fdE
00000000001203c0 t _ZN12regex_syntax3ast5parse16ParserI$LT$P$GT$12parse_escape17hca8a4498f2ec9f1eE
0000000000126dc0 t _ZN12regex_syntax3ast5parse16ParserI$LT$P$GT$12pop_class_op17hd1146d87d96c695aE
0000000000123d60 t _ZN12regex_syntax3ast5parse16ParserI$LT$P$GT$13parse_decimal17h217ecada5ea1e097E
000000000011ed20 t _ZN12regex_syntax3ast5parse16ParserI$LT$P$GT$13pop_group_end17h8d48cf5bf99a27a5E
00000000001256a0 t _ZN12regex_syntax3ast5parse16ParserI$LT$P$GT$13push_class_op17h74e5c31fce912c51E
0000000000121f40 t _ZN12regex_syntax3ast5parse16ParserI$LT$P$GT$14push_alternate17h6f793127705f9dc0E
000000000012ae60 t _ZN12regex_syntax3ast5parse16ParserI$LT$P$GT$15parse_hex_brace17h5803aa82d3e7b55cE
0000000000122340 t _ZN12regex_syntax3ast5parse16ParserI$LT$P$GT$15parse_set_class17hdf8a1bfd98181b8aE
00000000001258a0 t _ZN12regex_syntax3ast5parse16ParserI$LT$P$GT$15push_class_open17hb1a85a310b882b42E
000000000012b4d0 t _ZN12regex_syntax3ast5parse16ParserI$LT$P$GT$16parse_hex_digits17hfa62d6e7abab2fcbE
000000000012a9b0 t _ZN12regex_syntax3ast5parse16ParserI$LT$P$GT$16parse_perl_class17h652acf3530fa0f3bE
00000000001289e0 t _ZN12regex_syntax3ast5parse16ParserI$LT$P$GT$18parse_capture_name17h7b172ff50402afe3E
00000000001243a0 t _ZN12regex_syntax3ast5parse16ParserI$LT$P$GT$19bump_and_bump_space17h11c00ad11330c43bE
0000000000129e90 t _ZN12regex_syntax3ast5parse16ParserI$LT$P$GT$19parse_unicode_class17hc22c22f219e8dbefE
0000000000127140 t _ZN12regex_syntax3ast5parse16ParserI$LT$P$GT$20parse_set_class_item17hab13170ed8a9d25cE
0000000000126100 t _ZN12regex_syntax3ast5parse16ParserI$LT$P$GT$20parse_set_class_open17h4e84ced016377990E
0000000000124500 t _ZN12regex_syntax3ast5parse16ParserI$LT$P$GT$20unclosed_class_error17hd8f6ed7a26931492E
0000000000124650 t _ZN12regex_syntax3ast5parse16ParserI$LT$P$GT$21parse_set_class_range17hb9ee96652c8755c8E
0000000000125c50 t _ZN12regex_syntax3ast5parse16ParserI$LT$P$GT$23maybe_parse_ascii_class17he83a2a320b3498afE
0000000000123330 t _ZN12regex_syntax3ast5parse16ParserI$LT$P$GT$24parse_counted_repetition17h2433d7cfd4d7bda0E
0000000000122d30 t _ZN12regex_syntax3ast5parse16ParserI$LT$P$GT$26parse_uncounted_repetition17h3d7b3254a44bbb2cE
0000000000120250 t _ZN12regex_syntax3ast5parse16ParserI$LT$P$GT$4bump17h55d0d8e8a459b4d0E
000000000011ec20 t _ZN12regex_syntax3ast5parse16ParserI$LT$P$GT$4char17h65101299ef8f58c8E
00000000001255b0 t _ZN12regex_syntax3ast5parse16ParserI$LT$P$GT$4peek17h8ba13f12744e9c4dE
00000000001243e0 t _ZN12regex_syntax3ast5parse16ParserI$LT$P$GT$5error17h491f8b27de3047a1E
0000000000129ce0 t _ZN12regex_syntax3ast5parse16ParserI$LT$P$GT$9parse_hex17hbd362473434758c2E
0000000000125120 t _ZN12regex_syntax3ast5parse16ParserI$LT$P$GT$9pop_class17hdbeb570fc42dc689E
0000000000121380 t _ZN12regex_syntax3ast5parse16ParserI$LT$P$GT$9pop_group17h9c148c26fed9ed1bE
0000000000120170 t _ZN12regex_syntax3ast5parse16ParserI$LT$P$GT$9span_char17h36b06bd5942c0cb7E
000000000012bb00 t _ZN12regex_syntax3ast5parse20NestLimiter$LT$P$GT$15increment_depth17h4746e479b028c619E
000000000011f570 t _ZN12regex_syntax3ast5parse20NestLimiter$LT$P$GT$5check17h6d8b7331117fe1e0E
00000000001274b0 t _ZN12regex_syntax3ast5parse9Primitive18into_class_literal17h8229d048ec72e08cE
000000000012bc30 t _ZN12regex_syntax3ast6Concat8into_ast17h91685b92f1dbd54cE
0000000000141900 t _ZN12regex_syntax3ast7visitor11HeapVisitor16visit_class_post17h6d0c624c091743c7E
0000000000135360 t _ZN12regex_syntax3hir10ClassBytes16case_fold_simple17h635a88efd89b0b0cE
00000000001354f0 t _ZN12regex_syntax3hir10ClassBytes6negate17h8a519d1ef5b17125E
0000000000135000 t _ZN12regex_syntax3hir12ClassUnicode6negate17h7f452f9b30289f11E
0000000000134900 t _ZN12regex_syntax3hir3Hir10repetition17hdff1a993c56cbab0E
0000000000134e90 t _ZN12regex_syntax3hir3Hir3any17h24ae426afd8bbc33E
0000000000134b40 t _ZN12regex_syntax3hir3Hir6concat17h5de936a61dc1fc16E
00000000001348a0 t _ZN12regex_syntax3hir3Hir7literal17hc6a857ec23822b5bE
000000000013c130 t _ZN12regex_syntax3hir7literal8Literals13cross_product17h1cc3b027aec289a1E
000000000013d500 t _ZN12regex_syntax3hir7literal8Literals14add_byte_class17h2be912057d8c3665E
000000000013ce20 t _ZN12regex_syntax3hir7literal8Literals15_add_char_class17h64b4f4853eca9f59E
000000000013dc90 t _ZN12regex_syntax3hir7literal8Literals15remove_complete17h6fc6bd96e5565954E
000000000013c850 t _ZN12regex_syntax3hir7literal8Literals3add17h6b5dec71f4dd1df6E
000000000013bdf0 t _ZN12regex_syntax3hir7literal8Literals5union17h0c62a12b6755390cE
000000000013d9d0 t _ZN12regex_syntax3hir7literal8Literals9cross_add17h203b91a32bed3822E
000000000013ab80 t _ZN12regex_syntax3hir7literal8prefixes17hc3bd82cf633f04b9E
000000000013df00 t _ZN12regex_syntax3hir7literal8suffixes17hb83b3efe86f413d5E
000000000012fc20 t _ZN12regex_syntax3hir8interval20IntervalSet$LT$I$GT$10difference17h9046bc4163e20d2eE
0000000000130090 t _ZN12regex_syntax3hir8interval20IntervalSet$LT$I$GT$10difference17hfbeb419dd0f7d020E
000000000012eb90 t _ZN12regex_syntax3hir8interval20IntervalSet$LT$I$GT$12canonicalize17h3eac503239ec4dc4E
000000000012dec0 t _ZN12regex_syntax3hir8interval20IntervalSet$LT$I$GT$12canonicalize17ha9f3810ed7a16be6E
000000000012de70 t _ZN12regex_syntax3hir8interval20IntervalSet$LT$I$GT$3new17h04e17dd3a07bb7fbE
000000000012f850 t _ZN12regex_syntax3hir8interval20IntervalSet$LT$I$GT$3new17hc6630c171b73c0ebE
000000000012f8a0 t _ZN12regex_syntax3hir8interval20IntervalSet$LT$I$GT$9intersect17ha981863c40007a84E
000000000012fa60 t _ZN12regex_syntax3hir8interval20IntervalSet$LT$I$GT$9intersect17hbc2e06c7e3ef9ea4E
0000000000139ff0 t _ZN12regex_syntax3hir9translate11TranslatorI17hir_unicode_class17h0aa314fa4fa04990E
000000000013aa20 t _ZN12regex_syntax3hir9translate11TranslatorI18class_literal_byte17h905a05d4a02a2075E
000000000013a870 t _ZN12regex_syntax3hir9translate11TranslatorI19hir_perl_byte_class17h1c698fc391a59860E
000000000013a620 t _ZN12regex_syntax3hir9translate11TranslatorI21bytes_fold_and_negate17h55dd3c429d63faf3E
000000000013a960 t _ZN12regex_syntax3hir9translate11TranslatorI22hir_perl_unicode_class17h676452c0615867f7E
000000000013a7a0 t _ZN12regex_syntax3hir9translate11TranslatorI23unicode_fold_and_negate17hc27ff3da43016a57E
000000000013a4f0 t _ZN12regex_syntax3hir9translate11TranslatorI3pop17hae0b71fe45ed5434E
0000000000137f40 t _ZN12regex_syntax3hir9translate11TranslatorI4push17h4bef4fe5aecc7888E
000000000013a590 t _ZN12regex_syntax3hir9translate8HirFrame18unwrap_class_bytes17h5ff5c8694b2292ffE
000000000013a710 t _ZN12regex_syntax3hir9translate8HirFrame20unwrap_class_unicode17h96ca624f1c980c1fE
0000000000131e20 t _ZN12regex_syntax5error5Spans14from_formatter17h82ebf3318261be2eE
0000000000132c40 t _ZN12regex_syntax5error5Spans3add17h6fef1210dd880041E
0000000000132230 t _ZN12regex_syntax5error5Spans6notate17h3ed776af0e6c209bE
0000000000133830 t _ZN12regex_syntax7unicode10ClassQuery16canonical_binary17h605949e9f4ba8963E
0000000000133890 t _ZN12regex_syntax7unicode23symbolic_name_normalize17hcc2d65cbcdea044aE
00000000000eee20 t _ZN130_$LT$mmtk_openjdk..gc_work..ScanJNIHandlesRoots$LT$F$GT$$u20$as$u20$mmtk..scheduler..work..GCWork$LT$mmtk_openjdk..OpenJDK$GT$$GT$7do_work17h111a70177e1d9c36E
00000000000eee40 t _ZN130_$LT$mmtk_openjdk..gc_work..ScanJNIHandlesRoots$LT$F$GT$$u20$as$u20$mmtk..scheduler..work..GCWork$LT$mmtk_openjdk..OpenJDK$GT$$GT$7do_work17h210ea3070f1619cbE
00000000000eee60 t _ZN130_$LT$mmtk_openjdk..gc_work..ScanJNIHandlesRoots$LT$F$GT$$u20$as$u20$mmtk..scheduler..work..GCWork$LT$mmtk_openjdk..OpenJDK$GT$$GT$7do_work17h3311d545d2e81d85E
00000000000eee80 t _ZN130_$LT$mmtk_openjdk..gc_work..ScanJNIHandlesRoots$LT$F$GT$$u20$as$u20$mmtk..scheduler..work..GCWork$LT$mmtk_openjdk..OpenJDK$GT$$GT$7do_work17h3ea9435d30072c73E
00000000000eeea0 t _ZN130_$LT$mmtk_openjdk..gc_work..ScanJNIHandlesRoots$LT$F$GT$$u20$as$u20$mmtk..scheduler..work..GCWork$LT$mmtk_openjdk..OpenJDK$GT$$GT$7do_work17h5a69052dcd36bed2E
00000000000eeec0 t _ZN130_$LT$mmtk_openjdk..gc_work..ScanJNIHandlesRoots$LT$F$GT$$u20$as$u20$mmtk..scheduler..work..GCWork$LT$mmtk_openjdk..OpenJDK$GT$$GT$7do_work17h8397201d6844a380E
00000000000eeee0 t _ZN130_$LT$mmtk_openjdk..gc_work..ScanJNIHandlesRoots$LT$F$GT$$u20$as$u20$mmtk..scheduler..work..GCWork$LT$mmtk_openjdk..OpenJDK$GT$$GT$7do_work17h9eb6c0a406cc7342E
00000000000eef00 t _ZN130_$LT$mmtk_openjdk..gc_work..ScanJNIHandlesRoots$LT$F$GT$$u20$as$u20$mmtk..scheduler..work..GCWork$LT$mmtk_openjdk..OpenJDK$GT$$GT$7do_work17ha6f7bac9b9d1abb0E
00000000000eef20 t _ZN130_$LT$mmtk_openjdk..gc_work..ScanJNIHandlesRoots$LT$F$GT$$u20$as$u20$mmtk..scheduler..work..GCWork$LT$mmtk_openjdk..OpenJDK$GT$$GT$7do_work17hb5c21a5063244018E
00000000000eef40 t _ZN130_$LT$mmtk_openjdk..gc_work..ScanJNIHandlesRoots$LT$F$GT$$u20$as$u20$mmtk..scheduler..work..GCWork$LT$mmtk_openjdk..OpenJDK$GT$$GT$7do_work17hc67ebfb278d3eab2E
00000000000eef60 t _ZN130_$LT$mmtk_openjdk..gc_work..ScanJNIHandlesRoots$LT$F$GT$$u20$as$u20$mmtk..scheduler..work..GCWork$LT$mmtk_openjdk..OpenJDK$GT$$GT$7do_work17hca82cb3d0eff57f7E
00000000000ef0e0 t _ZN130_$LT$mmtk_openjdk..gc_work..ScanManagementRoots$LT$F$GT$$u20$as$u20$mmtk..scheduler..work..GCWork$LT$mmtk_openjdk..OpenJDK$GT$$GT$7do_work17h63f30424b145570eE
00000000000ef100 t _ZN130_$LT$mmtk_openjdk..gc_work..ScanManagementRoots$LT$F$GT$$u20$as$u20$mmtk..scheduler..work..GCWork$LT$mmtk_openjdk..OpenJDK$GT$$GT$7do_work17h6e481d131b7a4567E
00000000000ef120 t _ZN130_$LT$mmtk_openjdk..gc_work..ScanManagementRoots$LT$F$GT$$u20$as$u20$mmtk..scheduler..work..GCWork$LT$mmtk_openjdk..OpenJDK$GT$$GT$7do_work17h746a3963df78f824E
00000000000ef140 t _ZN130_$LT$mmtk_openjdk..gc_work..ScanManagementRoots$LT$F$GT$$u20$as$u20$mmtk..scheduler..work..GCWork$LT$mmtk_openjdk..OpenJDK$GT$$GT$7do_work17h81e9734fd729dafeE
00000000000ef160 t _ZN130_$LT$mmtk_openjdk..gc_work..ScanManagementRoots$LT$F$GT$$u20$as$u20$mmtk..scheduler..work..GCWork$LT$mmtk_openjdk..OpenJDK$GT$$GT$7do_work17h8c01fd436b2d872dE
00000000000ef180 t _ZN130_$LT$mmtk_openjdk..gc_work..ScanManagementRoots$LT$F$GT$$u20$as$u20$mmtk..scheduler..work..GCWork$LT$mmtk_openjdk..OpenJDK$GT$$GT$7do_work17h8f29eca9969d57d8E
00000000000ef1a0 t _ZN130_$LT$mmtk_openjdk..gc_work..ScanManagementRoots$LT$F$GT$$u20$as$u20$mmtk..scheduler..work..GCWork$LT$mmtk_openjdk..OpenJDK$GT$$GT$7do_work17h919eb6f7f5d0267fE
00000000000ef1c0 t _ZN130_$LT$mmtk_openjdk..gc_work..ScanManagementRoots$LT$F$GT$$u20$as$u20$mmtk..scheduler..work..GCWork$LT$mmtk_openjdk..OpenJDK$GT$$GT$7do_work17ha338718108f59f2eE
00000000000ef1e0 t _ZN130_$LT$mmtk_openjdk..gc_work..ScanManagementRoots$LT$F$GT$$u20$as$u20$mmtk..scheduler..work..GCWork$LT$mmtk_openjdk..OpenJDK$GT$$GT$7do_work17hbb735c12ccc247baE
00000000000ef200 t _ZN130_$LT$mmtk_openjdk..gc_work..ScanManagementRoots$LT$F$GT$$u20$as$u20$mmtk..scheduler..work..GCWork$LT$mmtk_openjdk..OpenJDK$GT$$GT$7do_work17hd21524e7c479caefE
00000000000ef220 t _ZN130_$LT$mmtk_openjdk..gc_work..ScanManagementRoots$LT$F$GT$$u20$as$u20$mmtk..scheduler..work..GCWork$LT$mmtk_openjdk..OpenJDK$GT$$GT$7do_work17he83c8a2698525e4bE
00000000000dbfb0 t _ZN130_$LT$mmtk..plan..markcompact..gc_work..CalculateForwardingAddress$LT$VM$GT$$u20$as$u20$mmtk..scheduler..work..GCWork$LT$VM$GT$$GT$7do_work17hb11dcb9db7723f51E
00000000000c9920 t _ZN130_$LT$mmtk..util..alloc..immix_allocator..ImmixAllocator$LT$VM$GT$$u20$as$u20$mmtk..util..alloc..allocator..Allocator$LT$VM$GT$$GT$15alloc_slow_once17h014dfe730eb5e469E
00000000000c8f90 t _ZN130_$LT$mmtk..util..alloc..immix_allocator..ImmixAllocator$LT$VM$GT$$u20$as$u20$mmtk..util..alloc..allocator..Allocator$LT$VM$GT$$GT$30alloc_slow_once_precise_stress17h6db8137f98fe44b4E
00000000000a35a0 t _ZN130_$LT$mmtk..util..alloc..immix_allocator..ImmixAllocator$LT$VM$GT$$u20$as$u20$mmtk..util..alloc..allocator..Allocator$LT$VM$GT$$GT$5alloc17h1e12a9c4da169ca6E
00000000000c9930 t _ZN130_$LT$mmtk..util..alloc..immix_allocator..ImmixAllocator$LT$VM$GT$$u20$as$u20$mmtk..util..alloc..allocator..Allocator$LT$VM$GT$$GT$7get_tls17h40af7075c8539440E
00000000000c9910 t _ZN130_$LT$mmtk..util..alloc..immix_allocator..ImmixAllocator$LT$VM$GT$$u20$as$u20$mmtk..util..alloc..allocator..Allocator$LT$VM$GT$$GT$8get_plan17hf80cdf27f34bce6fE
00000000000c98f0 t _ZN130_$LT$mmtk..util..alloc..immix_allocator..ImmixAllocator$LT$VM$GT$$u20$as$u20$mmtk..util..alloc..allocator..Allocator$LT$VM$GT$$GT$9get_space17h5d0d09ed7ff7b688E
000000000005c930 t _ZN131_$LT$crossbeam_epoch..internal..Local$u20$as$u20$crossbeam_epoch..sync..list..IsElement$LT$crossbeam_epoch..internal..Local$GT$$GT$8finalize17hc011e6b94093dd7bE
00000000000ef240 t _ZN131_$LT$mmtk_openjdk..gc_work..ScanJvmtiExportRoots$LT$F$GT$$u20$as$u20$mmtk..scheduler..work..GCWork$LT$mmtk_openjdk..OpenJDK$GT$$GT$7do_work17h1e9da59f9914b158E
00000000000ef260 t _ZN131_$LT$mmtk_openjdk..gc_work..ScanJvmtiExportRoots$LT$F$GT$$u20$as$u20$mmtk..scheduler..work..GCWork$LT$mmtk_openjdk..OpenJDK$GT$$GT$7do_work17h1f091987c9524cbeE
00000000000ef280 t _ZN131_$LT$mmtk_openjdk..gc_work..ScanJvmtiExportRoots$LT$F$GT$$u20$as$u20$mmtk..scheduler..work..GCWork$LT$mmtk_openjdk..OpenJDK$GT$$GT$7do_work17h25a3a30cd20c52a6E
00000000000ef2a0 t _ZN131_$LT$mmtk_openjdk..gc_work..ScanJvmtiExportRoots$LT$F$GT$$u20$as$u20$mmtk..scheduler..work..GCWork$LT$mmtk_openjdk..OpenJDK$GT$$GT$7do_work17h8543e2e9e93554cfE
00000000000ef2c0 t _ZN131_$LT$mmtk_openjdk..gc_work..ScanJvmtiExportRoots$LT$F$GT$$u20$as$u20$mmtk..scheduler..work..GCWork$LT$mmtk_openjdk..OpenJDK$GT$$GT$7do_work17h8d644c8cf6ef90acE
00000000000ef2e0 t _ZN131_$LT$mmtk_openjdk..gc_work..ScanJvmtiExportRoots$LT$F$GT$$u20$as$u20$mmtk..scheduler..work..GCWork$LT$mmtk_openjdk..OpenJDK$GT$$GT$7do_work17h978de9d6dd545d5aE
00000000000ef300 t _ZN131_$LT$mmtk_openjdk..gc_work..ScanJvmtiExportRoots$LT$F$GT$$u20$as$u20$mmtk..scheduler..work..GCWork$LT$mmtk_openjdk..OpenJDK$GT$$GT$7do_work17h9a1b3a95cfeb9a11E
00000000000ef320 t _ZN131_$LT$mmtk_openjdk..gc_work..ScanJvmtiExportRoots$LT$F$GT$$u20$as$u20$mmtk..scheduler..work..GCWork$LT$mmtk_openjdk..OpenJDK$GT$$GT$7do_work17hacf11ad7fe5c79b1E
00000000000ef340 t _ZN131_$LT$mmtk_openjdk..gc_work..ScanJvmtiExportRoots$LT$F$GT$$u20$as$u20$mmtk..scheduler..work..GCWork$LT$mmtk_openjdk..OpenJDK$GT$$GT$7do_work17hc52edbe3446c40daE
00000000000ef360 t _ZN131_$LT$mmtk_openjdk..gc_work..ScanJvmtiExportRoots$LT$F$GT$$u20$as$u20$mmtk..scheduler..work..GCWork$LT$mmtk_openjdk..OpenJDK$GT$$GT$7do_work17hd4dbe29416888337E
00000000000ef380 t _ZN131_$LT$mmtk_openjdk..gc_work..ScanJvmtiExportRoots$LT$F$GT$$u20$as$u20$mmtk..scheduler..work..GCWork$LT$mmtk_openjdk..OpenJDK$GT$$GT$7do_work17he99d9cf23ddeed11E
00000000000ef660 t _ZN131_$LT$mmtk_openjdk..gc_work..ScanStringTableRoots$LT$F$GT$$u20$as$u20$mmtk..scheduler..work..GCWork$LT$mmtk_openjdk..OpenJDK$GT$$GT$7do_work17h36cc715fb292e7f8E
00000000000ef680 t _ZN131_$LT$mmtk_openjdk..gc_work..ScanStringTableRoots$LT$F$GT$$u20$as$u20$mmtk..scheduler..work..GCWork$LT$mmtk_openjdk..OpenJDK$GT$$GT$7do_work17h6688dd125b5e9a08E
00000000000ef6a0 t _ZN131_$LT$mmtk_openjdk..gc_work..ScanStringTableRoots$LT$F$GT$$u20$as$u20$mmtk..scheduler..work..GCWork$LT$mmtk_openjdk..OpenJDK$GT$$GT$7do_work17h83d8d7242d025ca1E
00000000000ef6c0 t _ZN131_$LT$mmtk_openjdk..gc_work..ScanStringTableRoots$LT$F$GT$$u20$as$u20$mmtk..scheduler..work..GCWork$LT$mmtk_openjdk..OpenJDK$GT$$GT$7do_work17h92bdaa21dc013862E
00000000000ef6e0 t _ZN131_$LT$mmtk_openjdk..gc_work..ScanStringTableRoots$LT$F$GT$$u20$as$u20$mmtk..scheduler..work..GCWork$LT$mmtk_openjdk..OpenJDK$GT$$GT$7do_work17ha44a90b5f49b080eE
00000000000ef700 t _ZN131_$LT$mmtk_openjdk..gc_work..ScanStringTableRoots$LT$F$GT$$u20$as$u20$mmtk..scheduler..work..GCWork$LT$mmtk_openjdk..OpenJDK$GT$$GT$7do_work17ha5fa354414a0403fE
00000000000ef720 t _ZN131_$LT$mmtk_openjdk..gc_work..ScanStringTableRoots$LT$F$GT$$u20$as$u20$mmtk..scheduler..work..GCWork$LT$mmtk_openjdk..OpenJDK$GT$$GT$7do_work17hbdd4cb847412f5a8E
00000000000ef740 t _ZN131_$LT$mmtk_openjdk..gc_work..ScanStringTableRoots$LT$F$GT$$u20$as$u20$mmtk..scheduler..work..GCWork$LT$mmtk_openjdk..OpenJDK$GT$$GT$7do_work17hbfc97d0ceafb01adE
00000000000ef760 t _ZN131_$LT$mmtk_openjdk..gc_work..ScanStringTableRoots$LT$F$GT$$u20$as$u20$mmtk..scheduler..work..GCWork$LT$mmtk_openjdk..OpenJDK$GT$$GT$7do_work17hcb41d1478b9cbdf2E
00000000000ef780 t _ZN131_$LT$mmtk_openjdk..gc_work..ScanStringTableRoots$LT$F$GT$$u20$as$u20$mmtk..scheduler..work..GCWork$LT$mmtk_openjdk..OpenJDK$GT$$GT$7do_work17hea64f098fdf8f9d0E
00000000000ef7a0 t _ZN131_$LT$mmtk_openjdk..gc_work..ScanStringTableRoots$LT$F$GT$$u20$as$u20$mmtk..scheduler..work..GCWork$LT$mmtk_openjdk..OpenJDK$GT$$GT$7do_work17hea82c9b963c37e3fE
00000000001c5838 b _ZN132_$LT$mmtk_openjdk..abi..InstanceMirrorKlass..offset_of_static_fields..OFFSET_OF_STATIC_FIELDS$u20$as$u20$core..ops..deref..Deref$GT$5deref11__stability4LAZY17h7cb57408071271f7E
00000000000b59b0 t _ZN132_$LT$mmtk..util..alloc..malloc_allocator..MallocAllocator$LT$VM$GT$$u20$as$u20$mmtk..util..alloc..allocator..Allocator$LT$VM$GT$$GT$15alloc_slow_once17he1247e7044d5b7d0E
00000000000b67f0 t _ZN132_$LT$mmtk..util..alloc..malloc_allocator..MallocAllocator$LT$VM$GT$$u20$as$u20$mmtk..util..alloc..allocator..Allocator$LT$VM$GT$$GT$28does_thread_local_allocation17h59f854eabcfefefdE
00000000000b67d0 t _ZN132_$LT$mmtk..util..alloc..malloc_allocator..MallocAllocator$LT$VM$GT$$u20$as$u20$mmtk..util..alloc..allocator..Allocator$LT$VM$GT$$GT$5alloc17h41d29ae73c100711E
00000000000b67e0 t _ZN132_$LT$mmtk..util..alloc..malloc_allocator..MallocAllocator$LT$VM$GT$$u20$as$u20$mmtk..util..alloc..allocator..Allocator$LT$VM$GT$$GT$7get_tls17hb06a15c128f5c598E
00000000000b67c0 t _ZN132_$LT$mmtk..util..alloc..malloc_allocator..MallocAllocator$LT$VM$GT$$u20$as$u20$mmtk..util..alloc..allocator..Allocator$LT$VM$GT$$GT$8get_plan17h327bd7d149a13fdbE
00000000000b6790 t _ZN132_$LT$mmtk..util..alloc..malloc_allocator..MallocAllocator$LT$VM$GT$$u20$as$u20$mmtk..util..alloc..allocator..Allocator$LT$VM$GT$$GT$9get_space17h5cad485767e123f8E
00000000000ef920 t _ZN133_$LT$mmtk_openjdk..gc_work..ScanWeakProcessorRoots$LT$F$GT$$u20$as$u20$mmtk..scheduler..work..GCWork$LT$mmtk_openjdk..OpenJDK$GT$$GT$7do_work17h0392ffd2415f3617E
00000000000ef940 t _ZN133_$LT$mmtk_openjdk..gc_work..ScanWeakProcessorRoots$LT$F$GT$$u20$as$u20$mmtk..scheduler..work..GCWork$LT$mmtk_openjdk..OpenJDK$GT$$GT$7do_work17h2fca19276cf110a1E
00000000000ef960 t _ZN133_$LT$mmtk_openjdk..gc_work..ScanWeakProcessorRoots$LT$F$GT$$u20$as$u20$mmtk..scheduler..work..GCWork$LT$mmtk_openjdk..OpenJDK$GT$$GT$7do_work17h3024ae40b5476ac1E
00000000000ef980 t _ZN133_$LT$mmtk_openjdk..gc_work..ScanWeakProcessorRoots$LT$F$GT$$u20$as$u20$mmtk..scheduler..work..GCWork$LT$mmtk_openjdk..OpenJDK$GT$$GT$7do_work17h96d11ca7244a518bE
00000000000ef9a0 t _ZN133_$LT$mmtk_openjdk..gc_work..ScanWeakProcessorRoots$LT$F$GT$$u20$as$u20$mmtk..scheduler..work..GCWork$LT$mmtk_openjdk..OpenJDK$GT$$GT$7do_work17h990a0755b7cfa23fE
00000000000ef9c0 t _ZN133_$LT$mmtk_openjdk..gc_work..ScanWeakProcessorRoots$LT$F$GT$$u20$as$u20$mmtk..scheduler..work..GCWork$LT$mmtk_openjdk..OpenJDK$GT$$GT$7do_work17ha0d8c4228dff1f27E
00000000000ef9e0 t _ZN133_$LT$mmtk_openjdk..gc_work..ScanWeakProcessorRoots$LT$F$GT$$u20$as$u20$mmtk..scheduler..work..GCWork$LT$mmtk_openjdk..OpenJDK$GT$$GT$7do_work17hb0ac2762bc9ac055E
00000000000efa00 t _ZN133_$LT$mmtk_openjdk..gc_work..ScanWeakProcessorRoots$LT$F$GT$$u20$as$u20$mmtk..scheduler..work..GCWork$LT$mmtk_openjdk..OpenJDK$GT$$GT$7do_work17hb2ec37410c5ad5f9E
00000000000efa20 t _ZN133_$LT$mmtk_openjdk..gc_work..ScanWeakProcessorRoots$LT$F$GT$$u20$as$u20$mmtk..scheduler..work..GCWork$LT$mmtk_openjdk..OpenJDK$GT$$GT$7do_work17hbb56397dbe14284dE
00000000000efa40 t _ZN133_$LT$mmtk_openjdk..gc_work..ScanWeakProcessorRoots$LT$F$GT$$u20$as$u20$mmtk..scheduler..work..GCWork$LT$mmtk_openjdk..OpenJDK$GT$$GT$7do_work17hc99c2e656b9070c1E
00000000000efa60 t _ZN133_$LT$mmtk_openjdk..gc_work..ScanWeakProcessorRoots$LT$F$GT$$u20$as$u20$mmtk..scheduler..work..GCWork$LT$mmtk_openjdk..OpenJDK$GT$$GT$7do_work17he690eb3b48365e24E
00000000000ef500 t _ZN136_$LT$mmtk_openjdk..gc_work..ScanSystemDictionaryRoots$LT$F$GT$$u20$as$u20$mmtk..scheduler..work..GCWork$LT$mmtk_openjdk..OpenJDK$GT$$GT$7do_work17h046da738661a1327E
00000000000ef520 t _ZN136_$LT$mmtk_openjdk..gc_work..ScanSystemDictionaryRoots$LT$F$GT$$u20$as$u20$mmtk..scheduler..work..GCWork$LT$mmtk_openjdk..OpenJDK$GT$$GT$7do_work17h0f46266c0243db29E
00000000000ef540 t _ZN136_$LT$mmtk_openjdk..gc_work..ScanSystemDictionaryRoots$LT$F$GT$$u20$as$u20$mmtk..scheduler..work..GCWork$LT$mmtk_openjdk..OpenJDK$GT$$GT$7do_work17h5c24e39e4db47286E
00000000000ef560 t _ZN136_$LT$mmtk_openjdk..gc_work..ScanSystemDictionaryRoots$LT$F$GT$$u20$as$u20$mmtk..scheduler..work..GCWork$LT$mmtk_openjdk..OpenJDK$GT$$GT$7do_work17h8158df094f827731E
00000000000ef580 t _ZN136_$LT$mmtk_openjdk..gc_work..ScanSystemDictionaryRoots$LT$F$GT$$u20$as$u20$mmtk..scheduler..work..GCWork$LT$mmtk_openjdk..OpenJDK$GT$$GT$7do_work17h853bf3bef8bfcf60E
00000000000ef5a0 t _ZN136_$LT$mmtk_openjdk..gc_work..ScanSystemDictionaryRoots$LT$F$GT$$u20$as$u20$mmtk..scheduler..work..GCWork$LT$mmtk_openjdk..OpenJDK$GT$$GT$7do_work17ha4a5ac883992a577E
00000000000ef5c0 t _ZN136_$LT$mmtk_openjdk..gc_work..ScanSystemDictionaryRoots$LT$F$GT$$u20$as$u20$mmtk..scheduler..work..GCWork$LT$mmtk_openjdk..OpenJDK$GT$$GT$7do_work17hb2d65ea5acbb1f95E
00000000000ef5e0 t _ZN136_$LT$mmtk_openjdk..gc_work..ScanSystemDictionaryRoots$LT$F$GT$$u20$as$u20$mmtk..scheduler..work..GCWork$LT$mmtk_openjdk..OpenJDK$GT$$GT$7do_work17hb9f5a99ae8f4dbc6E
00000000000ef600 t _ZN136_$LT$mmtk_openjdk..gc_work..ScanSystemDictionaryRoots$LT$F$GT$$u20$as$u20$mmtk..scheduler..work..GCWork$LT$mmtk_openjdk..OpenJDK$GT$$GT$7do_work17hd25646398e58c0e5E
00000000000ef620 t _ZN136_$LT$mmtk_openjdk..gc_work..ScanSystemDictionaryRoots$LT$F$GT$$u20$as$u20$mmtk..scheduler..work..GCWork$LT$mmtk_openjdk..OpenJDK$GT$$GT$7do_work17heec4d09493c92a57E
00000000000ef640 t _ZN136_$LT$mmtk_openjdk..gc_work..ScanSystemDictionaryRoots$LT$F$GT$$u20$as$u20$mmtk..scheduler..work..GCWork$LT$mmtk_openjdk..OpenJDK$GT$$GT$7do_work17hf3b7c99068aef1ceE
00000000000eef80 t _ZN138_$LT$mmtk_openjdk..gc_work..ScanObjectSynchronizerRoots$LT$F$GT$$u20$as$u20$mmtk..scheduler..work..GCWork$LT$mmtk_openjdk..OpenJDK$GT$$GT$7do_work17h003cd18d303f0f54E
00000000000eefa0 t _ZN138_$LT$mmtk_openjdk..gc_work..ScanObjectSynchronizerRoots$LT$F$GT$$u20$as$u20$mmtk..scheduler..work..GCWork$LT$mmtk_openjdk..OpenJDK$GT$$GT$7do_work17h373b17eb67645516E
00000000000eefc0 t _ZN138_$LT$mmtk_openjdk..gc_work..ScanObjectSynchronizerRoots$LT$F$GT$$u20$as$u20$mmtk..scheduler..work..GCWork$LT$mmtk_openjdk..OpenJDK$GT$$GT$7do_work17h3e7b641c28923a45E
00000000000eefe0 t _ZN138_$LT$mmtk_openjdk..gc_work..ScanObjectSynchronizerRoots$LT$F$GT$$u20$as$u20$mmtk..scheduler..work..GCWork$LT$mmtk_openjdk..OpenJDK$GT$$GT$7do_work17h7425ac43e76b71acE
00000000000ef000 t _ZN138_$LT$mmtk_openjdk..gc_work..ScanObjectSynchronizerRoots$LT$F$GT$$u20$as$u20$mmtk..scheduler..work..GCWork$LT$mmtk_openjdk..OpenJDK$GT$$GT$7do_work17h7f5d2e501f764ee0E
00000000000ef020 t _ZN138_$LT$mmtk_openjdk..gc_work..ScanObjectSynchronizerRoots$LT$F$GT$$u20$as$u20$mmtk..scheduler..work..GCWork$LT$mmtk_openjdk..OpenJDK$GT$$GT$7do_work17h90b6caae56c0149dE
00000000000ef040 t _ZN138_$LT$mmtk_openjdk..gc_work..ScanObjectSynchronizerRoots$LT$F$GT$$u20$as$u20$mmtk..scheduler..work..GCWork$LT$mmtk_openjdk..OpenJDK$GT$$GT$7do_work17h967a2762c5bbc503E
00000000000ef060 t _ZN138_$LT$mmtk_openjdk..gc_work..ScanObjectSynchronizerRoots$LT$F$GT$$u20$as$u20$mmtk..scheduler..work..GCWork$LT$mmtk_openjdk..OpenJDK$GT$$GT$7do_work17ha7e1e8fe9c49270aE
00000000000ef080 t _ZN138_$LT$mmtk_openjdk..gc_work..ScanObjectSynchronizerRoots$LT$F$GT$$u20$as$u20$mmtk..scheduler..work..GCWork$LT$mmtk_openjdk..OpenJDK$GT$$GT$7do_work17hadf33e112c835defE
00000000000ef0a0 t _ZN138_$LT$mmtk_openjdk..gc_work..ScanObjectSynchronizerRoots$LT$F$GT$$u20$as$u20$mmtk..scheduler..work..GCWork$LT$mmtk_openjdk..OpenJDK$GT$$GT$7do_work17hb1d8e447bee0a1b2E
00000000000ef0c0 t _ZN138_$LT$mmtk_openjdk..gc_work..ScanObjectSynchronizerRoots$LT$F$GT$$u20$as$u20$mmtk..scheduler..work..GCWork$LT$mmtk_openjdk..OpenJDK$GT$$GT$7do_work17hec45d6134983abcbE
00000000000ef7c0 t _ZN140_$LT$mmtk_openjdk..gc_work..ScanClassLoaderDataGraphRoots$LT$F$GT$$u20$as$u20$mmtk..scheduler..work..GCWork$LT$mmtk_openjdk..OpenJDK$GT$$GT$7do_work17h03e7be7a353783ceE
00000000000ef7e0 t _ZN140_$LT$mmtk_openjdk..gc_work..ScanClassLoaderDataGraphRoots$LT$F$GT$$u20$as$u20$mmtk..scheduler..work..GCWork$LT$mmtk_openjdk..OpenJDK$GT$$GT$7do_work17h0b262e178a20b510E
00000000000ef800 t _ZN140_$LT$mmtk_openjdk..gc_work..ScanClassLoaderDataGraphRoots$LT$F$GT$$u20$as$u20$mmtk..scheduler..work..GCWork$LT$mmtk_openjdk..OpenJDK$GT$$GT$7do_work17h0e7ad76c4f3306f9E
00000000000ef820 t _ZN140_$LT$mmtk_openjdk..gc_work..ScanClassLoaderDataGraphRoots$LT$F$GT$$u20$as$u20$mmtk..scheduler..work..GCWork$LT$mmtk_openjdk..OpenJDK$GT$$GT$7do_work17h18abfbd522efd3a1E
00000000000ef840 t _ZN140_$LT$mmtk_openjdk..gc_work..ScanClassLoaderDataGraphRoots$LT$F$GT$$u20$as$u20$mmtk..scheduler..work..GCWork$LT$mmtk_openjdk..OpenJDK$GT$$GT$7do_work17h49ab7666612d2ed9E
00000000000ef860 t _ZN140_$LT$mmtk_openjdk..gc_work..ScanClassLoaderDataGraphRoots$LT$F$GT$$u20$as$u20$mmtk..scheduler..work..GCWork$LT$mmtk_openjdk..OpenJDK$GT$$GT$7do_work17h4e7998e1368984a1E
00000000000ef880 t _ZN140_$LT$mmtk_openjdk..gc_work..ScanClassLoaderDataGraphRoots$LT$F$GT$$u20$as$u20$mmtk..scheduler..work..GCWork$LT$mmtk_openjdk..OpenJDK$GT$$GT$7do_work17h61fe8f30c62ffdf2E
00000000000ef8a0 t _ZN140_$LT$mmtk_openjdk..gc_work..ScanClassLoaderDataGraphRoots$LT$F$GT$$u20$as$u20$mmtk..scheduler..work..GCWork$LT$mmtk_openjdk..OpenJDK$GT$$GT$7do_work17h762218c1e8f6eaf2E
00000000000ef8c0 t _ZN140_$LT$mmtk_openjdk..gc_work..ScanClassLoaderDataGraphRoots$LT$F$GT$$u20$as$u20$mmtk..scheduler..work..GCWork$LT$mmtk_openjdk..OpenJDK$GT$$GT$7do_work17ha01e0b0b71f2df69E
00000000000ef8e0 t _ZN140_$LT$mmtk_openjdk..gc_work..ScanClassLoaderDataGraphRoots$LT$F$GT$$u20$as$u20$mmtk..scheduler..work..GCWork$LT$mmtk_openjdk..OpenJDK$GT$$GT$7do_work17hbd3172522f87b0a9E
00000000000ef900 t _ZN140_$LT$mmtk_openjdk..gc_work..ScanClassLoaderDataGraphRoots$LT$F$GT$$u20$as$u20$mmtk..scheduler..work..GCWork$LT$mmtk_openjdk..OpenJDK$GT$$GT$7do_work17hfc40d0a4d9600fafE
00000000000f38d0 t _ZN142_$LT$mmtk..util..alloc..markcompact_allocator..MarkCompactAllocator$LT$VM$GT$$u20$as$u20$mmtk..util..alloc..allocator..Allocator$LT$VM$GT$$GT$15alloc_slow_once17h93be12f4c8c10178E
00000000000f3990 t _ZN142_$LT$mmtk..util..alloc..markcompact_allocator..MarkCompactAllocator$LT$VM$GT$$u20$as$u20$mmtk..util..alloc..allocator..Allocator$LT$VM$GT$$GT$30alloc_slow_once_precise_stress17h6f17437975d18683E
00000000000f3860 t _ZN142_$LT$mmtk..util..alloc..markcompact_allocator..MarkCompactAllocator$LT$VM$GT$$u20$as$u20$mmtk..util..alloc..allocator..Allocator$LT$VM$GT$$GT$35get_thread_local_buffer_granularity17h4d5a9d2c84af6a59E
00000000000f3870 t _ZN142_$LT$mmtk..util..alloc..markcompact_allocator..MarkCompactAllocator$LT$VM$GT$$u20$as$u20$mmtk..util..alloc..allocator..Allocator$LT$VM$GT$$GT$5alloc17he27c9b7837182561E
00000000000f3850 t _ZN142_$LT$mmtk..util..alloc..markcompact_allocator..MarkCompactAllocator$LT$VM$GT$$u20$as$u20$mmtk..util..alloc..allocator..Allocator$LT$VM$GT$$GT$7get_tls17hcee6303d281741e3E
00000000000f3840 t _ZN142_$LT$mmtk..util..alloc..markcompact_allocator..MarkCompactAllocator$LT$VM$GT$$u20$as$u20$mmtk..util..alloc..allocator..Allocator$LT$VM$GT$$GT$8get_plan17h91344ba72a66437cE
00000000000f3830 t _ZN142_$LT$mmtk..util..alloc..markcompact_allocator..MarkCompactAllocator$LT$VM$GT$$u20$as$u20$mmtk..util..alloc..allocator..Allocator$LT$VM$GT$$GT$9get_space17h7adb4de4d839a819E
00000000000c39b0 t _ZN143_$LT$mmtk..util..alloc..large_object_allocator..LargeObjectAllocator$LT$VM$GT$$u20$as$u20$mmtk..util..alloc..allocator..Allocator$LT$VM$GT$$GT$15alloc_slow_once17h3c2d0419a6d37c82E
00000000000c3960 t _ZN143_$LT$mmtk..util..alloc..large_object_allocator..LargeObjectAllocator$LT$VM$GT$$u20$as$u20$mmtk..util..alloc..allocator..Allocator$LT$VM$GT$$GT$5alloc17h0a0aa11e4a5c210cE
00000000000c3940 t _ZN143_$LT$mmtk..util..alloc..large_object_allocator..LargeObjectAllocator$LT$VM$GT$$u20$as$u20$mmtk..util..alloc..allocator..Allocator$LT$VM$GT$$GT$9get_space17ha94b959b58d2b31eE
00000000001c5850 b _ZN144_$LT$mmtk_openjdk..abi..InstanceMirrorKlass..static_oop_field_count_offset..STATIC_OOP_FIELD_COUNT_OFFSET$u20$as$u20$core..ops..deref..Deref$GT$5deref11__stability4LAZY17h08de21e201e021f2E
00000000000aa700 t _ZN145_$LT$mmtk..util..heap..freelistpageresource..FreeListPageResource$LT$VM$GT$$u20$as$u20$mmtk..util..heap..pageresource..PageResource$LT$VM$GT$$GT$10common_mut17hf985a7f7d2834ee5E
00000000000aa800 t _ZN145_$LT$mmtk..util..heap..freelistpageresource..FreeListPageResource$LT$VM$GT$$u20$as$u20$mmtk..util..heap..pageresource..PageResource$LT$VM$GT$$GT$11alloc_pages17h98ad8627b44dec06E
00000000000ab040 t _ZN145_$LT$mmtk..util..heap..freelistpageresource..FreeListPageResource$LT$VM$GT$$u20$as$u20$mmtk..util..heap..pageresource..PageResource$LT$VM$GT$$GT$19adjust_for_metadata17hc50bca1bcef03b85E
00000000000aa710 t _ZN145_$LT$mmtk..util..heap..freelistpageresource..FreeListPageResource$LT$VM$GT$$u20$as$u20$mmtk..util..heap..pageresource..PageResource$LT$VM$GT$$GT$28get_available_physical_pages17h86a687200b0748ffE
00000000000aa6f0 t _ZN145_$LT$mmtk..util..heap..freelistpageresource..FreeListPageResource$LT$VM$GT$$u20$as$u20$mmtk..util..heap..pageresource..PageResource$LT$VM$GT$$GT$6common17hfad8e6b5c3b5e951E
00000000000405c0 t _ZN145_$LT$mmtk..util..heap..monotonepageresource..MonotonePageResource$LT$VM$GT$$u20$as$u20$mmtk..util..heap..pageresource..PageResource$LT$VM$GT$$GT$10common_mut17hd1d9d3f47c442ed1E
0000000000040730 t _ZN145_$LT$mmtk..util..heap..monotonepageresource..MonotonePageResource$LT$VM$GT$$u20$as$u20$mmtk..util..heap..pageresource..PageResource$LT$VM$GT$$GT$11alloc_pages17hb2c12c412bc7f7abE
00000000000405d0 t _ZN145_$LT$mmtk..util..heap..monotonepageresource..MonotonePageResource$LT$VM$GT$$u20$as$u20$mmtk..util..heap..pageresource..PageResource$LT$VM$GT$$GT$13reserve_pages17h3efc7f9816ab6d38E
0000000000040980 t _ZN145_$LT$mmtk..util..heap..monotonepageresource..MonotonePageResource$LT$VM$GT$$u20$as$u20$mmtk..util..heap..pageresource..PageResource$LT$VM$GT$$GT$19adjust_for_metadata17hd2016e907a304330E
00000000000405e0 t _ZN145_$LT$mmtk..util..heap..monotonepageresource..MonotonePageResource$LT$VM$GT$$u20$as$u20$mmtk..util..heap..pageresource..PageResource$LT$VM$GT$$GT$28get_available_physical_pages17h495e6fe467b94087E
00000000000405b0 t _ZN145_$LT$mmtk..util..heap..monotonepageresource..MonotonePageResource$LT$VM$GT$$u20$as$u20$mmtk..util..heap..pageresource..PageResource$LT$VM$GT$$GT$6common17h3aafe6a03053d800E
00000000000213a0 t _ZN14atomic_refcell15AtomicBorrowRef14check_overflow17h2b7596b161550476E
000000000014acc0 t _ZN14rustc_demangle12try_demangle17h424dd289f244c1c2E
0000000000148f10 t _ZN14rustc_demangle2v010HexNibbles14try_parse_uint17h8a59ee6509c00b0bE
0000000000147530 t _ZN14rustc_demangle2v06Parser10integer_6217ha6ae71f78a9edf2aE
0000000000148e40 t _ZN14rustc_demangle2v06Parser11hex_nibbles17h88b0a1374e56d1e6E
0000000000146660 t _ZN14rustc_demangle2v06Parser13disambiguator17h6a150c186067fa92E
0000000000146740 t _ZN14rustc_demangle2v06Parser5ident17h7c47a650bc2cb0d1E
0000000000146600 t _ZN14rustc_demangle2v06Parser9namespace17he2b51b0d13d15ca4E
0000000000145540 t _ZN14rustc_demangle2v07Printer10print_path17hfc657298a8a49e69E
0000000000145fc0 t _ZN14rustc_demangle2v07Printer10print_type17he5b2debdc9a446caE
000000000014a6a0 t _ZN14rustc_demangle2v07Printer10print_type28_$u7b$$u7b$closure$u7d$$u7d$17hfa442cddf7113b6cE
0000000000147880 t _ZN14rustc_demangle2v07Printer11print_const17hfac704f30c176dffE
0000000000145d40 t _ZN14rustc_demangle2v07Printer13print_backref17h8ad68f16396be019E
0000000000147020 t _ZN14rustc_demangle2v07Printer13print_backref17hc2f14ce7f0d7e70fE
00000000001483e0 t _ZN14rustc_demangle2v07Printer13print_backref17hfaf766760cfeda34E
0000000000145f20 t _ZN14rustc_demangle2v07Printer14print_sep_list17h0d532caf0c7397deE
0000000000148870 t _ZN14rustc_demangle2v07Printer14print_sep_list17h1ff5a3ea91fe7a43E
00000000001485c0 t _ZN14rustc_demangle2v07Printer14print_sep_list17h8d1b724d2082155dE
00000000001477d0 t _ZN14rustc_demangle2v07Printer14print_sep_list17hcfa8683349a2e8e0E
000000000014a060 t _ZN14rustc_demangle2v07Printer15print_dyn_trait17hd30795f7e7042058E
0000000000147fd0 t _ZN14rustc_demangle2v07Printer16print_const_uint17hb9a1246d09e01d49E
000000000014a550 t _ZN14rustc_demangle2v07Printer17print_generic_arg17h94b45a245e736e76E
0000000000148920 t _ZN14rustc_demangle2v07Printer23print_const_str_literal17h11c2462290be0fffE
00000000001475f0 t _ZN14rustc_demangle2v07Printer25print_lifetime_from_index17hd933e071fcfc35f0E
00000000001490c0 t _ZN14rustc_demangle2v07Printer26print_quoted_escaped_chars17he5d7bd6bd1c38434E
000000000014a280 t _ZN14rustc_demangle2v07Printer30print_path_maybe_open_generics17h9a8f5872a9ad572cE
00000000001474f0 t _ZN14rustc_demangle2v07Printer3eat17h494aa3712cd416a5E
0000000000146e30 t _ZN14rustc_demangle2v07Printer9in_binder17h61dba884f7879d84E
00000000001471f0 t _ZN14rustc_demangle2v07Printer9in_binder17h79a63e25885476e1E
0000000000026ae0 t _ZN15crossbeam_deque5deque15Worker$LT$T$GT$6resize17h38170627713cbdfbE
00000000000ba1c0 t _ZN15crossbeam_deque5deque15Worker$LT$T$GT$8new_fifo17h284fbf7cdaaeb4c5E
00000000000ba7a0 t _ZN15crossbeam_deque5deque17Injector$LT$T$GT$19steal_batch_and_pop17h69a4d5df56140564E
00000000000ba560 t _ZN15crossbeam_deque5deque17Injector$LT$T$GT$4push17h058e3640fdfe02f6E
00000000000ba2c0 t _ZN15crossbeam_epoch7default3pin17hd8447d9cfae615ebE
0000000000000058 b _ZN15crossbeam_epoch7default6HANDLE7__getit5__KEY17h0a0166af664838d4E
00000000001c4320 d _ZN15crossbeam_epoch7default9COLLECTOR17hce02e42c21fadd7bE
00000000000d35d0 t _ZN15crossbeam_epoch8deferred8Deferred3new4call17h4cd6fda96d59f463E
000000000005d090 t _ZN15crossbeam_epoch8deferred8Deferred3new4call17h773c0b7f868df8f0E
000000000005d070 t _ZN15crossbeam_epoch8deferred8Deferred3new4call17hfeedb9f97ac3f52cE
000000000005d060 t _ZN15crossbeam_epoch8deferred8Deferred5NO_OP10no_op_call17hd5e475dcef942adaE
000000000005c8f0 t _ZN15crossbeam_epoch8internal5Local5unpin17hf19f23799c2f6946E
0000000000021fe0 t _ZN15crossbeam_epoch8internal5Local8finalize17h5163cb66b8217aa6E
0000000000021f10 t _ZN15crossbeam_epoch8internal6Global11try_advance17h7755d46e362f0c3fE
0000000000021c80 t _ZN15crossbeam_epoch8internal6Global7collect17h752db0bddb9e21e5E
000000000005c450 t _ZN15crossbeam_epoch8internal6Global8push_bag17h9ba72c7616687262E
000000000005cb50 t _ZN15crossbeam_epoch9collector9Collector3new17h82c4531fe51d51faE
000000000005cc00 t _ZN15crossbeam_epoch9collector9Collector8register17h51ac04e4f9f39b07E
00000000000a1b50 t _ZN15crossbeam_queue11array_queue19ArrayQueue$LT$T$GT$3new17he01c6a67f3e79f39E
00000000000a1e70 t _ZN15crossbeam_queue11array_queue19ArrayQueue$LT$T$GT$3pop17h8397aeccc6eaa736E
00000000000a1c60 t _ZN15crossbeam_queue11array_queue19ArrayQueue$LT$T$GT$4push17h6700eefb0394cb08E
0000000000087410 t _ZN161_$LT$mmtk..scheduler..gc_work..Prepare$LT$C$GT$$u20$as$u20$mmtk..scheduler..work..GCWork$LT$$LT$C$u20$as$u20$mmtk..scheduler..work..GCWorkContext$GT$..VM$GT$$GT$7do_work17h0ba51594e38915b5E
0000000000087810 t _ZN161_$LT$mmtk..scheduler..gc_work..Prepare$LT$C$GT$$u20$as$u20$mmtk..scheduler..work..GCWork$LT$$LT$C$u20$as$u20$mmtk..scheduler..work..GCWorkContext$GT$..VM$GT$$GT$7do_work17h2232612b14e74d1fE
0000000000087ac0 t _ZN161_$LT$mmtk..scheduler..gc_work..Prepare$LT$C$GT$$u20$as$u20$mmtk..scheduler..work..GCWork$LT$$LT$C$u20$as$u20$mmtk..scheduler..work..GCWorkContext$GT$..VM$GT$$GT$7do_work17h4320260633a40398E
0000000000087f60 t _ZN161_$LT$mmtk..scheduler..gc_work..Prepare$LT$C$GT$$u20$as$u20$mmtk..scheduler..work..GCWork$LT$$LT$C$u20$as$u20$mmtk..scheduler..work..GCWorkContext$GT$..VM$GT$$GT$7do_work17h5f43db28c492e55bE
0000000000088300 t _ZN161_$LT$mmtk..scheduler..gc_work..Prepare$LT$C$GT$$u20$as$u20$mmtk..scheduler..work..GCWork$LT$$LT$C$u20$as$u20$mmtk..scheduler..work..GCWorkContext$GT$..VM$GT$$GT$7do_work17h68bcdcb7c77b976dE
0000000000088700 t _ZN161_$LT$mmtk..scheduler..gc_work..Prepare$LT$C$GT$$u20$as$u20$mmtk..scheduler..work..GCWork$LT$$LT$C$u20$as$u20$mmtk..scheduler..work..GCWorkContext$GT$..VM$GT$$GT$7do_work17hd0412a76a9a6911cE
0000000000088aa0 t _ZN161_$LT$mmtk..scheduler..gc_work..Prepare$LT$C$GT$$u20$as$u20$mmtk..scheduler..work..GCWork$LT$$LT$C$u20$as$u20$mmtk..scheduler..work..GCWorkContext$GT$..VM$GT$$GT$7do_work17hffcc45ede553443cE
0000000000088e30 t _ZN161_$LT$mmtk..scheduler..gc_work..Release$LT$C$GT$$u20$as$u20$mmtk..scheduler..work..GCWork$LT$$LT$C$u20$as$u20$mmtk..scheduler..work..GCWorkContext$GT$..VM$GT$$GT$7do_work17h025b4f45ed807781E
0000000000089170 t _ZN161_$LT$mmtk..scheduler..gc_work..Release$LT$C$GT$$u20$as$u20$mmtk..scheduler..work..GCWork$LT$$LT$C$u20$as$u20$mmtk..scheduler..work..GCWorkContext$GT$..VM$GT$$GT$7do_work17h0f9ab1c1c018437eE
00000000000894a0 t _ZN161_$LT$mmtk..scheduler..gc_work..Release$LT$C$GT$$u20$as$u20$mmtk..scheduler..work..GCWork$LT$$LT$C$u20$as$u20$mmtk..scheduler..work..GCWorkContext$GT$..VM$GT$$GT$7do_work17h1e17979101e8b098E
0000000000089760 t _ZN161_$LT$mmtk..scheduler..gc_work..Release$LT$C$GT$$u20$as$u20$mmtk..scheduler..work..GCWork$LT$$LT$C$u20$as$u20$mmtk..scheduler..work..GCWorkContext$GT$..VM$GT$$GT$7do_work17h1f32db686860afa1E
0000000000089a20 t _ZN161_$LT$mmtk..scheduler..gc_work..Release$LT$C$GT$$u20$as$u20$mmtk..scheduler..work..GCWork$LT$$LT$C$u20$as$u20$mmtk..scheduler..work..GCWorkContext$GT$..VM$GT$$GT$7do_work17h5bd61fad0825ed6cE
0000000000089d40 t _ZN161_$LT$mmtk..scheduler..gc_work..Release$LT$C$GT$$u20$as$u20$mmtk..scheduler..work..GCWork$LT$$LT$C$u20$as$u20$mmtk..scheduler..work..GCWorkContext$GT$..VM$GT$$GT$7do_work17h8520aaf0733bc97cE
0000000000089ff0 t _ZN161_$LT$mmtk..scheduler..gc_work..Release$LT$C$GT$$u20$as$u20$mmtk..scheduler..work..GCWork$LT$$LT$C$u20$as$u20$mmtk..scheduler..work..GCWorkContext$GT$..VM$GT$$GT$7do_work17hc0be3d365365f389E
000000000008d870 t _ZN171_$LT$mmtk..scheduler..gc_work..ScanObjects$LT$E$GT$$u20$as$u20$mmtk..scheduler..work..GCWork$LT$$LT$E$u20$as$u20$mmtk..scheduler..gc_work..ProcessEdgesWork$GT$..VM$GT$$GT$7do_work17hd1942e9935f58be7E
000000000008a2a0 t _ZN172_$LT$mmtk..scheduler..gc_work..StopMutators$LT$E$GT$$u20$as$u20$mmtk..scheduler..work..GCWork$LT$$LT$E$u20$as$u20$mmtk..scheduler..gc_work..ProcessEdgesWork$GT$..VM$GT$$GT$7do_work17h19dc6515ae282d98E
000000000008a450 t _ZN172_$LT$mmtk..scheduler..gc_work..StopMutators$LT$E$GT$$u20$as$u20$mmtk..scheduler..work..GCWork$LT$$LT$E$u20$as$u20$mmtk..scheduler..gc_work..ProcessEdgesWork$GT$..VM$GT$$GT$7do_work17h1cc4be1d2e91d39fE
000000000008a600 t _ZN172_$LT$mmtk..scheduler..gc_work..StopMutators$LT$E$GT$$u20$as$u20$mmtk..scheduler..work..GCWork$LT$$LT$E$u20$as$u20$mmtk..scheduler..gc_work..ProcessEdgesWork$GT$..VM$GT$$GT$7do_work17h6ed9641b5b713362E
000000000008a7b0 t _ZN172_$LT$mmtk..scheduler..gc_work..StopMutators$LT$E$GT$$u20$as$u20$mmtk..scheduler..work..GCWork$LT$$LT$E$u20$as$u20$mmtk..scheduler..gc_work..ProcessEdgesWork$GT$..VM$GT$$GT$7do_work17h75c440fc110f280eE
000000000008a960 t _ZN172_$LT$mmtk..scheduler..gc_work..StopMutators$LT$E$GT$$u20$as$u20$mmtk..scheduler..work..GCWork$LT$$LT$E$u20$as$u20$mmtk..scheduler..gc_work..ProcessEdgesWork$GT$..VM$GT$$GT$7do_work17ha3d8b62b722d2250E
000000000008ab10 t _ZN172_$LT$mmtk..scheduler..gc_work..StopMutators$LT$E$GT$$u20$as$u20$mmtk..scheduler..work..GCWork$LT$$LT$E$u20$as$u20$mmtk..scheduler..gc_work..ProcessEdgesWork$GT$..VM$GT$$GT$7do_work17ha99ddecf5f401d5fE
000000000008acc0 t _ZN172_$LT$mmtk..scheduler..gc_work..StopMutators$LT$E$GT$$u20$as$u20$mmtk..scheduler..work..GCWork$LT$$LT$E$u20$as$u20$mmtk..scheduler..gc_work..ProcessEdgesWork$GT$..VM$GT$$GT$7do_work17hb43dec003adc4fb5E
000000000008ae70 t _ZN172_$LT$mmtk..scheduler..gc_work..StopMutators$LT$E$GT$$u20$as$u20$mmtk..scheduler..work..GCWork$LT$$LT$E$u20$as$u20$mmtk..scheduler..gc_work..ProcessEdgesWork$GT$..VM$GT$$GT$7do_work17hdcdf549881b98ffaE
000000000008b020 t _ZN172_$LT$mmtk..scheduler..gc_work..StopMutators$LT$E$GT$$u20$as$u20$mmtk..scheduler..work..GCWork$LT$$LT$E$u20$as$u20$mmtk..scheduler..gc_work..ProcessEdgesWork$GT$..VM$GT$$GT$7do_work17hf29e0553852127c1E
000000000008b1d0 t _ZN172_$LT$mmtk..scheduler..gc_work..StopMutators$LT$E$GT$$u20$as$u20$mmtk..scheduler..work..GCWork$LT$$LT$E$u20$as$u20$mmtk..scheduler..gc_work..ProcessEdgesWork$GT$..VM$GT$$GT$7do_work17hf970475aac32324bE
00000000000c21b0 t _ZN173_$LT$mmtk..scheduler..gc_work..ProcessModBuf$LT$E$GT$$u20$as$u20$mmtk..scheduler..work..GCWork$LT$$LT$E$u20$as$u20$mmtk..scheduler..gc_work..ProcessEdgesWork$GT$..VM$GT$$GT$7do_work17hb9f3bf98f501a8e0E
000000000008b390 t _ZN173_$LT$mmtk..scheduler..gc_work..ScanStackRoot$LT$E$GT$$u20$as$u20$mmtk..scheduler..work..GCWork$LT$$LT$E$u20$as$u20$mmtk..scheduler..gc_work..ProcessEdgesWork$GT$..VM$GT$$GT$7do_work17h0017a99cab1d0b12E
000000000008b450 t _ZN173_$LT$mmtk..scheduler..gc_work..ScanStackRoot$LT$E$GT$$u20$as$u20$mmtk..scheduler..work..GCWork$LT$$LT$E$u20$as$u20$mmtk..scheduler..gc_work..ProcessEdgesWork$GT$..VM$GT$$GT$7do_work17h082e6cf1fa53ebe6E
000000000008b510 t _ZN173_$LT$mmtk..scheduler..gc_work..ScanStackRoot$LT$E$GT$$u20$as$u20$mmtk..scheduler..work..GCWork$LT$$LT$E$u20$as$u20$mmtk..scheduler..gc_work..ProcessEdgesWork$GT$..VM$GT$$GT$7do_work17h1a27b912746af24eE
000000000008b5d0 t _ZN173_$LT$mmtk..scheduler..gc_work..ScanStackRoot$LT$E$GT$$u20$as$u20$mmtk..scheduler..work..GCWork$LT$$LT$E$u20$as$u20$mmtk..scheduler..gc_work..ProcessEdgesWork$GT$..VM$GT$$GT$7do_work17h20952e3800a0ab45E
000000000008b690 t _ZN173_$LT$mmtk..scheduler..gc_work..ScanStackRoot$LT$E$GT$$u20$as$u20$mmtk..scheduler..work..GCWork$LT$$LT$E$u20$as$u20$mmtk..scheduler..gc_work..ProcessEdgesWork$GT$..VM$GT$$GT$7do_work17h2d026ba8ac60e9bcE
000000000008b750 t _ZN173_$LT$mmtk..scheduler..gc_work..ScanStackRoot$LT$E$GT$$u20$as$u20$mmtk..scheduler..work..GCWork$LT$$LT$E$u20$as$u20$mmtk..scheduler..gc_work..ProcessEdgesWork$GT$..VM$GT$$GT$7do_work17h3393a3a52818cf5aE
000000000008b810 t _ZN173_$LT$mmtk..scheduler..gc_work..ScanStackRoot$LT$E$GT$$u20$as$u20$mmtk..scheduler..work..GCWork$LT$$LT$E$u20$as$u20$mmtk..scheduler..gc_work..ProcessEdgesWork$GT$..VM$GT$$GT$7do_work17h6ab44d46a9c831efE
000000000008b8d0 t _ZN173_$LT$mmtk..scheduler..gc_work..ScanStackRoot$LT$E$GT$$u20$as$u20$mmtk..scheduler..work..GCWork$LT$$LT$E$u20$as$u20$mmtk..scheduler..gc_work..ProcessEdgesWork$GT$..VM$GT$$GT$7do_work17h8a4ecd38faad9fecE
000000000008b990 t _ZN173_$LT$mmtk..scheduler..gc_work..ScanStackRoot$LT$E$GT$$u20$as$u20$mmtk..scheduler..work..GCWork$LT$$LT$E$u20$as$u20$mmtk..scheduler..gc_work..ProcessEdgesWork$GT$..VM$GT$$GT$7do_work17h8d30dc47b9b75c32E
000000000008ba50 t _ZN173_$LT$mmtk..scheduler..gc_work..ScanStackRoot$LT$E$GT$$u20$as$u20$mmtk..scheduler..work..GCWork$LT$$LT$E$u20$as$u20$mmtk..scheduler..gc_work..ProcessEdgesWork$GT$..VM$GT$$GT$7do_work17hb01e40141826d0ecE
000000000008bb10 t _ZN173_$LT$mmtk..scheduler..gc_work..ScanStackRoot$LT$E$GT$$u20$as$u20$mmtk..scheduler..work..GCWork$LT$$LT$E$u20$as$u20$mmtk..scheduler..gc_work..ProcessEdgesWork$GT$..VM$GT$$GT$7do_work17hcb027100a21bd788E
000000000008b380 t _ZN177_$LT$mmtk..scheduler..gc_work..VMProcessWeakRefs$LT$E$GT$$u20$as$u20$mmtk..scheduler..work..GCWork$LT$$LT$E$u20$as$u20$mmtk..scheduler..gc_work..ProcessEdgesWork$GT$..VM$GT$$GT$7do_work17h58f5ce09629819a4E
000000000008e680 t _ZN179_$LT$mmtk..scheduler..gc_work..PlanScanObjects$LT$E$C$P$GT$$u20$as$u20$mmtk..scheduler..work..GCWork$LT$$LT$E$u20$as$u20$mmtk..scheduler..gc_work..ProcessEdgesWork$GT$..VM$GT$$GT$7do_work17h07dc68061ebbcb80E
000000000008f9b0 t _ZN179_$LT$mmtk..scheduler..gc_work..PlanScanObjects$LT$E$C$P$GT$$u20$as$u20$mmtk..scheduler..work..GCWork$LT$$LT$E$u20$as$u20$mmtk..scheduler..gc_work..ProcessEdgesWork$GT$..VM$GT$$GT$7do_work17h1016eecc879c6172E
0000000000090eb0 t _ZN179_$LT$mmtk..scheduler..gc_work..PlanScanObjects$LT$E$C$P$GT$$u20$as$u20$mmtk..scheduler..work..GCWork$LT$$LT$E$u20$as$u20$mmtk..scheduler..gc_work..ProcessEdgesWork$GT$..VM$GT$$GT$7do_work17h452b9816cca083a4E
0000000000092200 t _ZN179_$LT$mmtk..scheduler..gc_work..PlanScanObjects$LT$E$C$P$GT$$u20$as$u20$mmtk..scheduler..work..GCWork$LT$$LT$E$u20$as$u20$mmtk..scheduler..gc_work..ProcessEdgesWork$GT$..VM$GT$$GT$7do_work17h539b23ee7711c55aE
00000000000936e0 t _ZN179_$LT$mmtk..scheduler..gc_work..PlanScanObjects$LT$E$C$P$GT$$u20$as$u20$mmtk..scheduler..work..GCWork$LT$$LT$E$u20$as$u20$mmtk..scheduler..gc_work..ProcessEdgesWork$GT$..VM$GT$$GT$7do_work17h5886bc08c1ed5cf2E
0000000000094d60 t _ZN179_$LT$mmtk..scheduler..gc_work..PlanScanObjects$LT$E$C$P$GT$$u20$as$u20$mmtk..scheduler..work..GCWork$LT$$LT$E$u20$as$u20$mmtk..scheduler..gc_work..ProcessEdgesWork$GT$..VM$GT$$GT$7do_work17h8590e57bbce0e0dcE
00000000000961d0 t _ZN179_$LT$mmtk..scheduler..gc_work..PlanScanObjects$LT$E$C$P$GT$$u20$as$u20$mmtk..scheduler..work..GCWork$LT$$LT$E$u20$as$u20$mmtk..scheduler..gc_work..ProcessEdgesWork$GT$..VM$GT$$GT$7do_work17ha888f2b1624e5ad4E
0000000000097530 t _ZN179_$LT$mmtk..scheduler..gc_work..PlanScanObjects$LT$E$C$P$GT$$u20$as$u20$mmtk..scheduler..work..GCWork$LT$$LT$E$u20$as$u20$mmtk..scheduler..gc_work..ProcessEdgesWork$GT$..VM$GT$$GT$7do_work17haba6d830644915b8E
00000000000984e0 t _ZN179_$LT$mmtk..scheduler..gc_work..PlanScanObjects$LT$E$C$P$GT$$u20$as$u20$mmtk..scheduler..work..GCWork$LT$$LT$E$u20$as$u20$mmtk..scheduler..gc_work..ProcessEdgesWork$GT$..VM$GT$$GT$7do_work17hbd303d768841cad5E
00000000000995f0 t _ZN179_$LT$mmtk..scheduler..gc_work..PlanScanObjects$LT$E$C$P$GT$$u20$as$u20$mmtk..scheduler..work..GCWork$LT$$LT$E$u20$as$u20$mmtk..scheduler..gc_work..ProcessEdgesWork$GT$..VM$GT$$GT$7do_work17hefa2f1d18a25f3c1E
000000000008a940 t _ZN179_$LT$mmtk..scheduler..gc_work..ScanVMSpecificRoots$LT$E$GT$$u20$as$u20$mmtk..scheduler..work..GCWork$LT$$LT$E$u20$as$u20$mmtk..scheduler..gc_work..ProcessEdgesWork$GT$..VM$GT$$GT$7do_work17h040432b7ae02557fE
000000000008a5e0 t _ZN179_$LT$mmtk..scheduler..gc_work..ScanVMSpecificRoots$LT$E$GT$$u20$as$u20$mmtk..scheduler..work..GCWork$LT$$LT$E$u20$as$u20$mmtk..scheduler..gc_work..ProcessEdgesWork$GT$..VM$GT$$GT$7do_work17h2b20c2156e5a4f9cE
000000000008b1b0 t _ZN179_$LT$mmtk..scheduler..gc_work..ScanVMSpecificRoots$LT$E$GT$$u20$as$u20$mmtk..scheduler..work..GCWork$LT$$LT$E$u20$as$u20$mmtk..scheduler..gc_work..ProcessEdgesWork$GT$..VM$GT$$GT$7do_work17h3b499f5ee12a06dfE
000000000008aca0 t _ZN179_$LT$mmtk..scheduler..gc_work..ScanVMSpecificRoots$LT$E$GT$$u20$as$u20$mmtk..scheduler..work..GCWork$LT$$LT$E$u20$as$u20$mmtk..scheduler..gc_work..ProcessEdgesWork$GT$..VM$GT$$GT$7do_work17h48b147ca33fa9254E
000000000008b000 t _ZN179_$LT$mmtk..scheduler..gc_work..ScanVMSpecificRoots$LT$E$GT$$u20$as$u20$mmtk..scheduler..work..GCWork$LT$$LT$E$u20$as$u20$mmtk..scheduler..gc_work..ProcessEdgesWork$GT$..VM$GT$$GT$7do_work17h744f53c614d3049aE
000000000008a430 t _ZN179_$LT$mmtk..scheduler..gc_work..ScanVMSpecificRoots$LT$E$GT$$u20$as$u20$mmtk..scheduler..work..GCWork$LT$$LT$E$u20$as$u20$mmtk..scheduler..gc_work..ProcessEdgesWork$GT$..VM$GT$$GT$7do_work17h89b29448231e1e61E
000000000008aaf0 t _ZN179_$LT$mmtk..scheduler..gc_work..ScanVMSpecificRoots$LT$E$GT$$u20$as$u20$mmtk..scheduler..work..GCWork$LT$$LT$E$u20$as$u20$mmtk..scheduler..gc_work..ProcessEdgesWork$GT$..VM$GT$$GT$7do_work17h8f13c3b0be4fb39fE
000000000008a790 t _ZN179_$LT$mmtk..scheduler..gc_work..ScanVMSpecificRoots$LT$E$GT$$u20$as$u20$mmtk..scheduler..work..GCWork$LT$$LT$E$u20$as$u20$mmtk..scheduler..gc_work..ProcessEdgesWork$GT$..VM$GT$$GT$7do_work17h9e3d43d10e1f8774E
000000000008bbd0 t _ZN179_$LT$mmtk..scheduler..gc_work..ScanVMSpecificRoots$LT$E$GT$$u20$as$u20$mmtk..scheduler..work..GCWork$LT$$LT$E$u20$as$u20$mmtk..scheduler..gc_work..ProcessEdgesWork$GT$..VM$GT$$GT$7do_work17hb052da56dc110787E
000000000008b360 t _ZN179_$LT$mmtk..scheduler..gc_work..ScanVMSpecificRoots$LT$E$GT$$u20$as$u20$mmtk..scheduler..work..GCWork$LT$$LT$E$u20$as$u20$mmtk..scheduler..gc_work..ProcessEdgesWork$GT$..VM$GT$$GT$7do_work17hc3e7ae52539891e8E
000000000008ae50 t _ZN179_$LT$mmtk..scheduler..gc_work..ScanVMSpecificRoots$LT$E$GT$$u20$as$u20$mmtk..scheduler..work..GCWork$LT$$LT$E$u20$as$u20$mmtk..scheduler..gc_work..ProcessEdgesWork$GT$..VM$GT$$GT$7do_work17hef6258d46406d912E
00000000000862c0 t _ZN180_$LT$mmtk..util..reference_processor..RefForwarding$LT$E$GT$$u20$as$u20$mmtk..scheduler..work..GCWork$LT$$LT$E$u20$as$u20$mmtk..scheduler..gc_work..ProcessEdgesWork$GT$..VM$GT$$GT$7do_work17hb0720e3da671f2b8E
00000000000c9940 t _ZN181_$LT$mmtk..util..finalizable_processor..Finalization$LT$E$GT$$u20$as$u20$mmtk..scheduler..work..GCWork$LT$$LT$E$u20$as$u20$mmtk..scheduler..gc_work..ProcessEdgesWork$GT$..VM$GT$$GT$7do_work17h4055f35c15e5a8fdE
00000000000ca370 t _ZN181_$LT$mmtk..util..finalizable_processor..Finalization$LT$E$GT$$u20$as$u20$mmtk..scheduler..work..GCWork$LT$$LT$E$u20$as$u20$mmtk..scheduler..gc_work..ProcessEdgesWork$GT$..VM$GT$$GT$7do_work17h47f97186bb8ee7d1E
00000000000cacd0 t _ZN181_$LT$mmtk..util..finalizable_processor..Finalization$LT$E$GT$$u20$as$u20$mmtk..scheduler..work..GCWork$LT$$LT$E$u20$as$u20$mmtk..scheduler..gc_work..ProcessEdgesWork$GT$..VM$GT$$GT$7do_work17h5c2443937d106effE
00000000000cb200 t _ZN181_$LT$mmtk..util..finalizable_processor..Finalization$LT$E$GT$$u20$as$u20$mmtk..scheduler..work..GCWork$LT$$LT$E$u20$as$u20$mmtk..scheduler..gc_work..ProcessEdgesWork$GT$..VM$GT$$GT$7do_work17h73ea7fae6b5cbdc2E
00000000000cbb10 t _ZN181_$LT$mmtk..util..finalizable_processor..Finalization$LT$E$GT$$u20$as$u20$mmtk..scheduler..work..GCWork$LT$$LT$E$u20$as$u20$mmtk..scheduler..gc_work..ProcessEdgesWork$GT$..VM$GT$$GT$7do_work17h7c48b6c42ea404a6E
00000000000cc470 t _ZN181_$LT$mmtk..util..finalizable_processor..Finalization$LT$E$GT$$u20$as$u20$mmtk..scheduler..work..GCWork$LT$$LT$E$u20$as$u20$mmtk..scheduler..gc_work..ProcessEdgesWork$GT$..VM$GT$$GT$7do_work17h9292098d302d9e44E
00000000000cce90 t _ZN181_$LT$mmtk..util..finalizable_processor..Finalization$LT$E$GT$$u20$as$u20$mmtk..scheduler..work..GCWork$LT$$LT$E$u20$as$u20$mmtk..scheduler..gc_work..ProcessEdgesWork$GT$..VM$GT$$GT$7do_work17hc22921370b6bc09dE
00000000000cd660 t _ZN181_$LT$mmtk..util..finalizable_processor..Finalization$LT$E$GT$$u20$as$u20$mmtk..scheduler..work..GCWork$LT$$LT$E$u20$as$u20$mmtk..scheduler..gc_work..ProcessEdgesWork$GT$..VM$GT$$GT$7do_work17hce09b02904eae4bbE
00000000000cdf40 t _ZN181_$LT$mmtk..util..finalizable_processor..Finalization$LT$E$GT$$u20$as$u20$mmtk..scheduler..work..GCWork$LT$$LT$E$u20$as$u20$mmtk..scheduler..gc_work..ProcessEdgesWork$GT$..VM$GT$$GT$7do_work17hd01bd94836b6cef3E
00000000000ce7e0 t _ZN181_$LT$mmtk..util..finalizable_processor..Finalization$LT$E$GT$$u20$as$u20$mmtk..scheduler..work..GCWork$LT$$LT$E$u20$as$u20$mmtk..scheduler..gc_work..ProcessEdgesWork$GT$..VM$GT$$GT$7do_work17hd3186fd7431ce573E
000000000007dbd0 t _ZN184_$LT$mmtk..util..reference_processor..SoftRefProcessing$LT$E$GT$$u20$as$u20$mmtk..scheduler..work..GCWork$LT$$LT$E$u20$as$u20$mmtk..scheduler..gc_work..ProcessEdgesWork$GT$..VM$GT$$GT$7do_work17h063c9e88692fad6aE
000000000007e8e0 t _ZN184_$LT$mmtk..util..reference_processor..SoftRefProcessing$LT$E$GT$$u20$as$u20$mmtk..scheduler..work..GCWork$LT$$LT$E$u20$as$u20$mmtk..scheduler..gc_work..ProcessEdgesWork$GT$..VM$GT$$GT$7do_work17h1d461bf63c7004beE
000000000007f330 t _ZN184_$LT$mmtk..util..reference_processor..SoftRefProcessing$LT$E$GT$$u20$as$u20$mmtk..scheduler..work..GCWork$LT$$LT$E$u20$as$u20$mmtk..scheduler..gc_work..ProcessEdgesWork$GT$..VM$GT$$GT$7do_work17h41ec6c15b5476eb5E
000000000007fc80 t _ZN184_$LT$mmtk..util..reference_processor..SoftRefProcessing$LT$E$GT$$u20$as$u20$mmtk..scheduler..work..GCWork$LT$$LT$E$u20$as$u20$mmtk..scheduler..gc_work..ProcessEdgesWork$GT$..VM$GT$$GT$7do_work17h6e81f96d3218b87dE
00000000000809a0 t _ZN184_$LT$mmtk..util..reference_processor..SoftRefProcessing$LT$E$GT$$u20$as$u20$mmtk..scheduler..work..GCWork$LT$$LT$E$u20$as$u20$mmtk..scheduler..gc_work..ProcessEdgesWork$GT$..VM$GT$$GT$7do_work17h75f9b2998cd294f6E
0000000000081530 t _ZN184_$LT$mmtk..util..reference_processor..SoftRefProcessing$LT$E$GT$$u20$as$u20$mmtk..scheduler..work..GCWork$LT$$LT$E$u20$as$u20$mmtk..scheduler..gc_work..ProcessEdgesWork$GT$..VM$GT$$GT$7do_work17ha3c52a3a03fc88f5E
0000000000081d30 t _ZN184_$LT$mmtk..util..reference_processor..SoftRefProcessing$LT$E$GT$$u20$as$u20$mmtk..scheduler..work..GCWork$LT$$LT$E$u20$as$u20$mmtk..scheduler..gc_work..ProcessEdgesWork$GT$..VM$GT$$GT$7do_work17he2b1a9d0957d41d1E
00000000000828c0 t _ZN184_$LT$mmtk..util..reference_processor..SoftRefProcessing$LT$E$GT$$u20$as$u20$mmtk..scheduler..work..GCWork$LT$$LT$E$u20$as$u20$mmtk..scheduler..gc_work..ProcessEdgesWork$GT$..VM$GT$$GT$7do_work17hec3b465af289acf0E
0000000000083490 t _ZN184_$LT$mmtk..util..reference_processor..SoftRefProcessing$LT$E$GT$$u20$as$u20$mmtk..scheduler..work..GCWork$LT$$LT$E$u20$as$u20$mmtk..scheduler..gc_work..ProcessEdgesWork$GT$..VM$GT$$GT$7do_work17hf5c8eca9388fa3bcE
0000000000083ff0 t _ZN184_$LT$mmtk..util..reference_processor..SoftRefProcessing$LT$E$GT$$u20$as$u20$mmtk..scheduler..work..GCWork$LT$$LT$E$u20$as$u20$mmtk..scheduler..gc_work..ProcessEdgesWork$GT$..VM$GT$$GT$7do_work17hf6937ffcd801d3bcE
00000000000846a0 t _ZN184_$LT$mmtk..util..reference_processor..WeakRefProcessing$LT$E$GT$$u20$as$u20$mmtk..scheduler..work..GCWork$LT$$LT$E$u20$as$u20$mmtk..scheduler..gc_work..ProcessEdgesWork$GT$..VM$GT$$GT$7do_work17h21e581005878b618E
00000000000847c0 t _ZN184_$LT$mmtk..util..reference_processor..WeakRefProcessing$LT$E$GT$$u20$as$u20$mmtk..scheduler..work..GCWork$LT$$LT$E$u20$as$u20$mmtk..scheduler..gc_work..ProcessEdgesWork$GT$..VM$GT$$GT$7do_work17h5707cbe4f25152feE
0000000000084930 t _ZN184_$LT$mmtk..util..reference_processor..WeakRefProcessing$LT$E$GT$$u20$as$u20$mmtk..scheduler..work..GCWork$LT$$LT$E$u20$as$u20$mmtk..scheduler..gc_work..ProcessEdgesWork$GT$..VM$GT$$GT$7do_work17h68cf91882d198dafE
0000000000084aa0 t _ZN184_$LT$mmtk..util..reference_processor..WeakRefProcessing$LT$E$GT$$u20$as$u20$mmtk..scheduler..work..GCWork$LT$$LT$E$u20$as$u20$mmtk..scheduler..gc_work..ProcessEdgesWork$GT$..VM$GT$$GT$7do_work17h6b73d696d9feee36E
0000000000084c10 t _ZN184_$LT$mmtk..util..reference_processor..WeakRefProcessing$LT$E$GT$$u20$as$u20$mmtk..scheduler..work..GCWork$LT$$LT$E$u20$as$u20$mmtk..scheduler..gc_work..ProcessEdgesWork$GT$..VM$GT$$GT$7do_work17h85b52249de2bfd3dE
0000000000084d80 t _ZN184_$LT$mmtk..util..reference_processor..WeakRefProcessing$LT$E$GT$$u20$as$u20$mmtk..scheduler..work..GCWork$LT$$LT$E$u20$as$u20$mmtk..scheduler..gc_work..ProcessEdgesWork$GT$..VM$GT$$GT$7do_work17ha05819eab4bdc0b3E
0000000000084ef0 t _ZN184_$LT$mmtk..util..reference_processor..WeakRefProcessing$LT$E$GT$$u20$as$u20$mmtk..scheduler..work..GCWork$LT$$LT$E$u20$as$u20$mmtk..scheduler..gc_work..ProcessEdgesWork$GT$..VM$GT$$GT$7do_work17ha84f84805d9cee26E
0000000000085060 t _ZN184_$LT$mmtk..util..reference_processor..WeakRefProcessing$LT$E$GT$$u20$as$u20$mmtk..scheduler..work..GCWork$LT$$LT$E$u20$as$u20$mmtk..scheduler..gc_work..ProcessEdgesWork$GT$..VM$GT$$GT$7do_work17hbd6cfcf0467dcf9bE
00000000000851d0 t _ZN184_$LT$mmtk..util..reference_processor..WeakRefProcessing$LT$E$GT$$u20$as$u20$mmtk..scheduler..work..GCWork$LT$$LT$E$u20$as$u20$mmtk..scheduler..gc_work..ProcessEdgesWork$GT$..VM$GT$$GT$7do_work17hdc09a878e50935c2E
0000000000085340 t _ZN184_$LT$mmtk..util..reference_processor..WeakRefProcessing$LT$E$GT$$u20$as$u20$mmtk..scheduler..work..GCWork$LT$$LT$E$u20$as$u20$mmtk..scheduler..gc_work..ProcessEdgesWork$GT$..VM$GT$$GT$7do_work17he0fc27f4f96e3c7eE
00000000000854b0 t _ZN187_$LT$mmtk..util..reference_processor..PhantomRefProcessing$LT$E$GT$$u20$as$u20$mmtk..scheduler..work..GCWork$LT$$LT$E$u20$as$u20$mmtk..scheduler..gc_work..ProcessEdgesWork$GT$..VM$GT$$GT$7do_work17h0e1db713b4cac63bE
0000000000085620 t _ZN187_$LT$mmtk..util..reference_processor..PhantomRefProcessing$LT$E$GT$$u20$as$u20$mmtk..scheduler..work..GCWork$LT$$LT$E$u20$as$u20$mmtk..scheduler..gc_work..ProcessEdgesWork$GT$..VM$GT$$GT$7do_work17h2c180b0199d79510E
0000000000085790 t _ZN187_$LT$mmtk..util..reference_processor..PhantomRefProcessing$LT$E$GT$$u20$as$u20$mmtk..scheduler..work..GCWork$LT$$LT$E$u20$as$u20$mmtk..scheduler..gc_work..ProcessEdgesWork$GT$..VM$GT$$GT$7do_work17h42df7a740633ed9eE
0000000000085900 t _ZN187_$LT$mmtk..util..reference_processor..PhantomRefProcessing$LT$E$GT$$u20$as$u20$mmtk..scheduler..work..GCWork$LT$$LT$E$u20$as$u20$mmtk..scheduler..gc_work..ProcessEdgesWork$GT$..VM$GT$$GT$7do_work17h4881614bf626f336E
0000000000085a70 t _ZN187_$LT$mmtk..util..reference_processor..PhantomRefProcessing$LT$E$GT$$u20$as$u20$mmtk..scheduler..work..GCWork$LT$$LT$E$u20$as$u20$mmtk..scheduler..gc_work..ProcessEdgesWork$GT$..VM$GT$$GT$7do_work17h591b8f3a3e9d40b7E
0000000000085b90 t _ZN187_$LT$mmtk..util..reference_processor..PhantomRefProcessing$LT$E$GT$$u20$as$u20$mmtk..scheduler..work..GCWork$LT$$LT$E$u20$as$u20$mmtk..scheduler..gc_work..ProcessEdgesWork$GT$..VM$GT$$GT$7do_work17h5fadc5eeb9d75425E
0000000000085d00 t _ZN187_$LT$mmtk..util..reference_processor..PhantomRefProcessing$LT$E$GT$$u20$as$u20$mmtk..scheduler..work..GCWork$LT$$LT$E$u20$as$u20$mmtk..scheduler..gc_work..ProcessEdgesWork$GT$..VM$GT$$GT$7do_work17h7a93edf96de6c1f0E
0000000000085e70 t _ZN187_$LT$mmtk..util..reference_processor..PhantomRefProcessing$LT$E$GT$$u20$as$u20$mmtk..scheduler..work..GCWork$LT$$LT$E$u20$as$u20$mmtk..scheduler..gc_work..ProcessEdgesWork$GT$..VM$GT$$GT$7do_work17hbf2ec9b77d85ffe4E
0000000000085fe0 t _ZN187_$LT$mmtk..util..reference_processor..PhantomRefProcessing$LT$E$GT$$u20$as$u20$mmtk..scheduler..work..GCWork$LT$$LT$E$u20$as$u20$mmtk..scheduler..gc_work..ProcessEdgesWork$GT$..VM$GT$$GT$7do_work17hd53ea2cde8252e80E
0000000000086150 t _ZN187_$LT$mmtk..util..reference_processor..PhantomRefProcessing$LT$E$GT$$u20$as$u20$mmtk..scheduler..work..GCWork$LT$$LT$E$u20$as$u20$mmtk..scheduler..gc_work..ProcessEdgesWork$GT$..VM$GT$$GT$7do_work17hfe5a1ced89ae28abE
00000000000cef60 t _ZN188_$LT$mmtk..util..finalizable_processor..ForwardFinalization$LT$E$GT$$u20$as$u20$mmtk..scheduler..work..GCWork$LT$$LT$E$u20$as$u20$mmtk..scheduler..gc_work..ProcessEdgesWork$GT$..VM$GT$$GT$7do_work17h3228c73378e9bf03E
000000000016ac60 t _ZN242_$LT$std..error..$LT$impl$u20$core..convert..From$LT$alloc..string..String$GT$$u20$for$u20$alloc..boxed..Box$LT$dyn$u20$std..error..Error$u2b$core..marker..Sync$u2b$core..marker..Send$GT$$GT$..from..StringError$u20$as$u20$core..fmt..Debug$GT$3fmt17he27e9d9e44c01cf4E
000000000016ac30 t _ZN243_$LT$std..error..$LT$impl$u20$core..convert..From$LT$alloc..string..String$GT$$u20$for$u20$alloc..boxed..Box$LT$dyn$u20$std..error..Error$u2b$core..marker..Sync$u2b$core..marker..Send$GT$$GT$..from..StringError$u20$as$u20$std..error..Error$GT$11description17hafc131609a85039dE
000000000016ac40 t _ZN244_$LT$std..error..$LT$impl$u20$core..convert..From$LT$alloc..string..String$GT$$u20$for$u20$alloc..boxed..Box$LT$dyn$u20$std..error..Error$u2b$core..marker..Sync$u2b$core..marker..Send$GT$$GT$..from..StringError$u20$as$u20$core..fmt..Display$GT$3fmt17h084a5c815933fb71E
00000000000ab8c0 t _ZN36_$LT$T$u20$as$u20$core..any..Any$GT$7type_id17h1313cf9f8c987d41E
00000000000bdf10 t _ZN36_$LT$T$u20$as$u20$core..any..Any$GT$7type_id17h17660eb3f587905dE
00000000000a1890 t _ZN36_$LT$T$u20$as$u20$core..any..Any$GT$7type_id17h1dbfbf7becbfb659E
00000000000bd640 t _ZN36_$LT$T$u20$as$u20$core..any..Any$GT$7type_id17h1ee4acf3464d2653E
000000000016fd50 t _ZN36_$LT$T$u20$as$u20$core..any..Any$GT$7type_id17h432b656d00be7661E
00000000000bd9f0 t _ZN36_$LT$T$u20$as$u20$core..any..Any$GT$7type_id17h480325cf5abfabd3E
00000000000c4f00 t _ZN36_$LT$T$u20$as$u20$core..any..Any$GT$7type_id17h4cbf2579025a4a48E
000000000016fce0 t _ZN36_$LT$T$u20$as$u20$core..any..Any$GT$7type_id17h57ccc7509d651293E
0000000000052c50 t _ZN36_$LT$T$u20$as$u20$core..any..Any$GT$7type_id17h682f46dd036ee46dE
00000000000c4ee0 t _ZN36_$LT$T$u20$as$u20$core..any..Any$GT$7type_id17h6b4bde788ff9f8b1E
00000000000bdf30 t _ZN36_$LT$T$u20$as$u20$core..any..Any$GT$7type_id17h7205293da82a7756E
00000000000afbe0 t _ZN36_$LT$T$u20$as$u20$core..any..Any$GT$7type_id17h72c9b7a600a5f864E
00000000000eca30 t _ZN36_$LT$T$u20$as$u20$core..any..Any$GT$7type_id17h7739a377eb6da382E
00000000000b99c0 t _ZN36_$LT$T$u20$as$u20$core..any..Any$GT$7type_id17ha5c0c9c6f9afb5f9E
000000000009a860 t _ZN36_$LT$T$u20$as$u20$core..any..Any$GT$7type_id17hacbd4d0f01a4a831E
00000000000cf7d0 t _ZN36_$LT$T$u20$as$u20$core..any..Any$GT$7type_id17hb06044e31f70e585E
00000000000abb00 t _ZN36_$LT$T$u20$as$u20$core..any..Any$GT$7type_id17hc0bf02f477d36603E
00000000000ab8a0 t _ZN36_$LT$T$u20$as$u20$core..any..Any$GT$7type_id17hc8af76e9d7346cf3E
000000000009aaa0 t _ZN36_$LT$T$u20$as$u20$core..any..Any$GT$7type_id17hcf5dc22a492f9f1bE
00000000000eca50 t _ZN36_$LT$T$u20$as$u20$core..any..Any$GT$7type_id17hd8af115759fb90afE
000000000003be10 t _ZN36_$LT$T$u20$as$u20$core..any..Any$GT$7type_id17hdbcfbe67b619a398E
00000000000afbc0 t _ZN36_$LT$T$u20$as$u20$core..any..Any$GT$7type_id17hdc6929d5ef633c89E
00000000000cf7b0 t _ZN36_$LT$T$u20$as$u20$core..any..Any$GT$7type_id17hfc9017296f00c14fE
00000000001b5478 d _ZN3log15LOG_LEVEL_NAMES17h18c10b14b81a9a2dE
00000000000662f0 t _ZN3log20eq_ignore_ascii_case17hd0ef534b1e451c5eE
00000000001c4408 b _ZN3log5STATE17h0e8e4d1a26a8c47fE
00000000001c4008 d _ZN3log6LOGGER17h14089affff12eca6E
0000000000000000 d _ZN3std10sys_common11thread_info11THREAD_INFO7__getit3VAL17h11116bdd7fc59d57E
00000000000000f8 b _ZN3std10sys_common11thread_info11THREAD_INFO7__getit5STATE17h06806e1ace37f432E.0.0
000000000014c630 t _ZN3std10sys_common11thread_info11THREAD_INFO7__getit7destroy17h60e29e357e76e2a9E
000000000014c8b0 t _ZN3std10sys_common16thread_local_key9StaticKey9lazy_init17hf349d07fbf1597d3E
00000000001c43a0 d _ZN3std10sys_common17thread_local_dtor22register_dtor_fallback5DTORS17h8f88e73c9129e1e8E
000000000014d3f0 t _ZN3std10sys_common17thread_local_dtor22register_dtor_fallback9run_dtors17h85fd05b48dd96796E
000000000016b8a0 t _ZN3std10sys_common5mutex12MovableMutex3new17ha7711d8257cce234E
000000000016ebd0 t _ZN3std10sys_common9backtrace10_print_fmt28_$u7b$$u7b$closure$u7d$$u7d$17h75defbc89a5858d9E
000000000016e280 t _ZN3std10sys_common9backtrace10_print_fmt28_$u7b$$u7b$closure$u7d$$u7d$17hbf08295511d30be8E
000000000016e490 t _ZN3std10sys_common9backtrace10_print_fmt28_$u7b$$u7b$closure$u7d$$u7d$28_$u7b$$u7b$closure$u7d$$u7d$17h8a7119a75317986fE
000000000014d740 t _ZN3std10sys_common9backtrace15output_filename17h342bed3329a73babE
00000000001c5970 b _ZN3std10sys_common9backtrace18rust_backtrace_env7ENABLED17hccfdaa85c83893eaE
00000000001418c0 t _ZN3std10sys_common9backtrace26__rust_end_short_backtrace17h09b5165e56739633E
000000000005f260 t _ZN3std10sys_common9backtrace26__rust_end_short_backtrace17h0b447f698a76796eE
000000000016f050 t _ZN3std10sys_common9backtrace26__rust_end_short_backtrace17h5ec3758a92cfb00dE
0000000000100d10 t _ZN3std10sys_common9backtrace26__rust_end_short_backtrace17h6ea50d2205c6f86fE
0000000000068b90 t _ZN3std10sys_common9backtrace26__rust_end_short_backtrace17h9d3e48988a5a41b6E
00000000000afa40 t _ZN3std10sys_common9backtrace26__rust_end_short_backtrace17ha1b51d639ddbb395E
00000000001704b0 t _ZN3std10sys_common9backtrace26__rust_end_short_backtrace17hd1cd7b90a48b6117E
00000000001c5948 b _ZN3std10sys_common9backtrace4lock4LOCK17hf5ea0af82d4369c1E
00000000000000b8 b _ZN3std11collections4hash3map11RandomState3new4KEYS7__getit5__KEY17h30ec9ad9edbab994E
0000000000074310 t _ZN3std11collections4hash3map24HashMap$LT$K$C$V$C$S$GT$3get17h5f88bcafe2526962E
0000000000074800 t _ZN3std11collections4hash3map24HashMap$LT$K$C$V$C$S$GT$3get17h7090a08b87d51ce7E
0000000000169770 t _ZN3std12backtrace_rs5print17BacktraceFrameFmt21print_raw_with_column17h9555b9439695feb3E
0000000000169540 t _ZN3std12backtrace_rs9backtrace9libunwind5trace8trace_fn17hc3eab22a24efaff2E
000000000014ea70 t _ZN3std12backtrace_rs9symbolize5gimli20libs_dl_iterate_phdr8callback17h98101bf9005561d8E
0000000000167b90 t _ZN3std12backtrace_rs9symbolize5gimli3elf15decompress_zlib17haf9f495bca27c32eE
0000000000154660 t _ZN3std12backtrace_rs9symbolize5gimli3elf15locate_build_id17hab45de4a179ba978E
00000000001c5a4a b _ZN3std12backtrace_rs9symbolize5gimli3elf17debug_path_exists17DEBUG_PATH_EXISTS17h8c9574a60fc16aadE.0.0
00000000001549d0 t _ZN3std12backtrace_rs9symbolize5gimli3elf62_$LT$impl$u20$std..backtrace_rs..symbolize..gimli..Mapping$GT$9new_debug17h1150cf67cafdaf3aE
00000000001540b0 t _ZN3std12backtrace_rs9symbolize5gimli3elf6Object5parse17h9fc034b946e341beE
000000000015f8b0 t _ZN3std12backtrace_rs9symbolize5gimli3elf6Object7section17haa995f659639c2c6E
0000000000153ea0 t _ZN3std12backtrace_rs9symbolize5gimli4mmap17h617a6b09d4bf41d3E
00000000001c5a18 b _ZN3std12backtrace_rs9symbolize5gimli5Cache11with_global14MAPPINGS_CACHE17h562fad0cfd8dbf14E
0000000000167ac0 t _ZN3std12backtrace_rs9symbolize5gimli5stash5Stash8allocate17hb47c6d586d5bfb31E
0000000000156d20 t _ZN3std12backtrace_rs9symbolize5gimli7Context3new17hdf1388a293136a00E
000000000014f060 t _ZN3std12backtrace_rs9symbolize5gimli7resolve28_$u7b$$u7b$closure$u7d$$u7d$17h9127a1c95d3e861eE
0000000000169450 t _ZN3std12backtrace_rs9symbolize6Symbol4name17h3dcb8445a6040d88E
0000000000169120 t _ZN3std2fs11OpenOptions5_open17h155576e6f54cd9f4E
000000000016cef0 t _ZN3std2io5stdio6_print17h4dabb72d0b79d2deE
00000000001c5910 b _ZN3std2io5stdio6stderr8INSTANCE17h4697916c6d656d44E
00000000001c58b8 b _ZN3std2io5stdio6STDOUT17h66c6bb61036c1bdbE
000000000016d190 t _ZN3std2io5stdio7_eprint17hcf1b8d781de453cbE
00000000000609c0 t _ZN3std2io5Write9write_all17h1617bbaac5216025E
000000000014d170 t _ZN3std2io5Write9write_all17h7299ce4a1f60c8e6E
0000000000060900 t _ZN3std2io5Write9write_all17h87d97cd2083935ffE
000000000016b7b0 t _ZN3std2io5Write9write_all17h8dcc9690feda5437E
0000000000170300 t _ZN3std2io5Write9write_all17hb5392d7c5459f7edE
000000000014cac0 t _ZN3std2io5Write9write_fmt17h2815c0519c99ba09E
000000000002c1d0 t _ZN3std2io8buffered9bufwriter18BufWriter$LT$W$GT$10write_cold17h244e8954d536b211E
000000000002c2b0 t _ZN3std2io8buffered9bufwriter18BufWriter$LT$W$GT$14write_all_cold17h7d4401f39de5fa54E
000000000016c050 t _ZN3std2io8buffered9bufwriter18BufWriter$LT$W$GT$9flush_buf17hcace439b0a6a064aE
0000000000169580 t _ZN3std3env7_var_os17hcaa7d44a808da5fdE
00000000001680f0 t _ZN3std3ffi5c_str7CString18from_vec_unchecked17h5485a32a7f106403E
0000000000167d00 t _ZN3std3ffi5c_str7CString3new17h1aa4366098673971E
000000000014cc70 t _ZN3std3sys4unix14abort_internal17h85af09101652c39eE
000000000014d260 t _ZN3std3sys4unix17decode_error_kind17hfb513f1cfd6f606bE
000000000014c670 t _ZN3std3sys4unix17thread_local_dtor13register_dtor17habfd8ca776840401E
0000000000156190 t _ZN3std3sys4unix2fs12canonicalize17h5eb2d13a132023a7E
0000000000156bb0 t _ZN3std3sys4unix2fs4stat17h901f499eeceb8f19E
00000000001c5a49 b _ZN3std3sys4unix2fs9try_statx11STATX_STATE17h3f45672901f8b13dE.0.0
0000000000167e30 t _ZN3std3sys4unix2fs9try_statx17hda9d039f22f881d2E
000000000016aab0 t _ZN3std3sys4unix2os12error_string17hefdcf37e3ed103e8E
00000000001c59d0 b _ZN3std3sys4unix2os8ENV_LOCK17hfc90c50b5886c633E
000000000014c600 t _ZN3std3sys4unix4args3imp15ARGV_INIT_ARRAY12init_wrapper17hd8a8528bd679ff3bE
00000000001b1a00 d _ZN3std3sys4unix4args3imp15ARGV_INIT_ARRAY17hfbbf9336507787a3E
0000000000170010 t _ZN3std3sys4unix4rand19hashmap_random_keys17hbbaf01846c7eda67E
00000000001c5a48 b _ZN3std3sys4unix4rand3imp20getrandom_fill_bytes21GETRANDOM_UNAVAILABLE17hb77b8d73377a40c7E.0.0
000000000016d430 t _ZN3std3sys4unix4time8Timespec12sub_timespec17h484f0cce6aa8b74bE
000000000016bbc0 t _ZN3std3sys4unix5mutex14ReentrantMutex4init17h0b355f731519095cE
000000000014e4a0 t _ZN3std4path10Components15include_cur_dir17h4fd641b4304b6174E
000000000014e580 t _ZN3std4path10Components25parse_next_component_back17h2759a036653d2ed5E
000000000014e0f0 t _ZN3std4path10Components7as_path17h9f1fa30f002a86ceE
000000000014d950 t _ZN3std4path4Path13_strip_prefix17h561fd4e89069214fE
00000000000ab6d0 t _ZN3std4sync4mpsc10mpsc_queue14Queue$LT$T$GT$3pop17hbe75762cf823dc3bE
00000000000c42d0 t _ZN3std4sync4mpsc10spsc_queue52Queue$LT$T$C$ProducerAddition$C$ConsumerAddition$GT$3pop17hfb2feef6364c3d4bE
00000000000eae50 t _ZN3std4sync4mpsc4sync15Packet$LT$T$GT$14wakeup_senders17h5c94355c2bcba704E
00000000000eb120 t _ZN3std4sync4mpsc4sync15Packet$LT$T$GT$9drop_port17hb67f9ff82469fba8E
00000000000b7b10 t _ZN3std4sync4mpsc6shared15Packet$LT$T$GT$13postinit_lock17haf7e0b061ed56465E
00000000000b7be0 t _ZN3std4sync4mpsc6shared15Packet$LT$T$GT$15inherit_blocker17h8facf774119fd79eE
00000000000b7d40 t _ZN3std4sync4mpsc6shared15Packet$LT$T$GT$4recv17h9ac213cc81ecb062E
00000000000b80f0 t _ZN3std4sync4mpsc6shared15Packet$LT$T$GT$8try_recv17h7950293d2a0f8cccE
00000000000b8310 t _ZN3std4sync4mpsc6shared15Packet$LT$T$GT$9drop_chan17hc83181ecf1de6eefE
00000000000b88c0 t _ZN3std4sync4mpsc6stream15Packet$LT$T$GT$4recv17h8689e6c702f5cee6E
00000000000b8460 t _ZN3std4sync4mpsc6stream15Packet$LT$T$GT$7do_send17h23d1f59f110b9202E
00000000000b8c10 t _ZN3std4sync4mpsc6stream15Packet$LT$T$GT$8try_recv17h2634535fb782e0b3E
00000000000b8f20 t _ZN3std4sync4mpsc6stream15Packet$LT$T$GT$9drop_chan17h3be1479b502383dbE
00000000000b8ff0 t _ZN3std4sync4mpsc6stream15Packet$LT$T$GT$9drop_port17h88cb48d5b579d92cE
00000000000b75b0 t _ZN3std4sync4mpsc7oneshot15Packet$LT$T$GT$4recv17hf5b9a9e1ee8d12b1E
00000000000b7920 t _ZN3std4sync4mpsc7oneshot15Packet$LT$T$GT$7upgrade17hf471f8a1bd917d82E
00000000000b7a50 t _ZN3std4sync4mpsc7oneshot15Packet$LT$T$GT$9drop_port17hd833d4348523b4b5E
000000000016d610 t _ZN3std4sync4mpsc8blocking6tokens17hac8486e525484510E
000000000016d980 t _ZN3std4sync4mpsc8blocking9WaitToken14wait_max_until17h294b826785919d03E
000000000016d760 t _ZN3std4sync4mpsc8blocking9WaitToken4wait17hdb5cf500312a6709E
000000000002b150 t _ZN3std4sync4once4Once10call_inner17h222a34e71c71c7d0E
000000000016c9d0 t _ZN3std4sync4once4Once15call_once_force28_$u7b$$u7b$closure$u7d$$u7d$17ha4fcf8c77668924aE
000000000016bb40 t _ZN3std4sync4once4Once15call_once_force28_$u7b$$u7b$closure$u7d$$u7d$17hb04857905bd7af62E
0000000000070670 t _ZN3std4sync4once4Once9call_once28_$u7b$$u7b$closure$u7d$$u7d$17h0fc2f16ebb675d33E
000000000006fa70 t _ZN3std4sync4once4Once9call_once28_$u7b$$u7b$closure$u7d$$u7d$17h117967ef1e61ad6bE
00000000000ec370 t _ZN3std4sync4once4Once9call_once28_$u7b$$u7b$closure$u7d$$u7d$17h37eda29598594d8aE
00000000000ebc80 t _ZN3std4sync4once4Once9call_once28_$u7b$$u7b$closure$u7d$$u7d$17h42e76e5599ea0c5dE
000000000006f650 t _ZN3std4sync4once4Once9call_once28_$u7b$$u7b$closure$u7d$$u7d$17h4a3c4323141d3058E
00000000000eadc0 t _ZN3std4sync4once4Once9call_once28_$u7b$$u7b$closure$u7d$$u7d$17h4e07f2fcfb2e653dE
000000000006fb70 t _ZN3std4sync4once4Once9call_once28_$u7b$$u7b$closure$u7d$$u7d$17h652e8829dd7d14f7E
00000000000706f0 t _ZN3std4sync4once4Once9call_once28_$u7b$$u7b$closure$u7d$$u7d$17h66dde9878385e84bE
00000000000ebf80 t _ZN3std4sync4once4Once9call_once28_$u7b$$u7b$closure$u7d$$u7d$17h6c0d9bb1b35a26edE
00000000000ec400 t _ZN3std4sync4once4Once9call_once28_$u7b$$u7b$closure$u7d$$u7d$17h6de694a38b6e4995E
00000000000ec630 t _ZN3std4sync4once4Once9call_once28_$u7b$$u7b$closure$u7d$$u7d$17h741fff27c43ae0dbE
0000000000070330 t _ZN3std4sync4once4Once9call_once28_$u7b$$u7b$closure$u7d$$u7d$17h891fdf5ca68cca6dE
000000000006f330 t _ZN3std4sync4once4Once9call_once28_$u7b$$u7b$closure$u7d$$u7d$17h8a8c58af3ed025a3E
000000000006fc90 t _ZN3std4sync4once4Once9call_once28_$u7b$$u7b$closure$u7d$$u7d$17h8e22c3995b46b071E
00000000000ec7f0 t _ZN3std4sync4once4Once9call_once28_$u7b$$u7b$closure$u7d$$u7d$17h8ff94c0e0a549e96E
0000000000070870 t _ZN3std4sync4once4Once9call_once28_$u7b$$u7b$closure$u7d$$u7d$17h922cc48446964c6fE
0000000000070570 t _ZN3std4sync4once4Once9call_once28_$u7b$$u7b$closure$u7d$$u7d$17h9a06fbb1a1f084a1E
000000000006f750 t _ZN3std4sync4once4Once9call_once28_$u7b$$u7b$closure$u7d$$u7d$17h9e07406fd0bb6aecE
0000000000070930 t _ZN3std4sync4once4Once9call_once28_$u7b$$u7b$closure$u7d$$u7d$17ha0c8539baba671c0E
000000000006fc20 t _ZN3std4sync4once4Once9call_once28_$u7b$$u7b$closure$u7d$$u7d$17ha1d5f78344cd661dE
00000000000ec0c0 t _ZN3std4sync4once4Once9call_once28_$u7b$$u7b$closure$u7d$$u7d$17hb25f019331b812abE
00000000000eb5c0 t _ZN3std4sync4once4Once9call_once28_$u7b$$u7b$closure$u7d$$u7d$17hb447131324e48475E
00000000000709b0 t _ZN3std4sync4once4Once9call_once28_$u7b$$u7b$closure$u7d$$u7d$17hc0d9e312846019aeE
000000000006f8c0 t _ZN3std4sync4once4Once9call_once28_$u7b$$u7b$closure$u7d$$u7d$17hc7168507aac71d3aE
000000000006f390 t _ZN3std4sync4once4Once9call_once28_$u7b$$u7b$closure$u7d$$u7d$17hcc8306d5f640fa75E
00000000000f5be0 t _ZN3std4sync4once4Once9call_once28_$u7b$$u7b$closure$u7d$$u7d$17hccaad74297a5e443E
00000000000ebd40 t _ZN3std4sync4once4Once9call_once28_$u7b$$u7b$closure$u7d$$u7d$17hd790173a625f7e64E
00000000000ec730 t _ZN3std4sync4once4Once9call_once28_$u7b$$u7b$closure$u7d$$u7d$17he12df4e3884998b7E
00000000000ebe00 t _ZN3std4sync4once4Once9call_once28_$u7b$$u7b$closure$u7d$$u7d$17he3c29f7cdfba381cE
00000000000af9f0 t _ZN3std4sync5mutex14Mutex$LT$T$GT$4lock17h2dae37ad1f90da7fE
000000000016dcb0 t _ZN3std4sync7condvar7Condvar3new17hc0b497195c7820caE
000000000016ec10 t _ZN3std5alloc24default_alloc_error_hook17h07e4e4d92b2a032cE
00000000001c5978 b _ZN3std5alloc4HOOK17h03dacd39a6cb03eeE
0000000000078400 t _ZN3std5error5Error5cause17hbaf28a6440aa494eE
00000000000783d0 t _ZN3std5error5Error6source17h77b073dfe365de6dE
00000000000783e0 t _ZN3std5error5Error7type_id17h5b4d399a24c288aeE
00000000000783f0 t _ZN3std5error5Error9backtrace17hd823848ca7c6d824E
000000000005e460 t _ZN3std6thread5local4fast12Key$LT$T$GT$14try_initialize17h3e04cced321c69d2E
000000000016baa0 t _ZN3std6thread5local4fast12Key$LT$T$GT$14try_initialize17h8f7fb76afe4eb2c9E
0000000000107280 t _ZN3std6thread5local4fast12Key$LT$T$GT$14try_initialize17h905625256baf438aE
00000000000b25a0 t _ZN3std6thread5local4fast12Key$LT$T$GT$14try_initialize17hab55b4eb1e0e40fcE
00000000000b2460 t _ZN3std6thread5local4fast12Key$LT$T$GT$14try_initialize17hd4a51cefaff07ea3E
000000000005e4a0 t _ZN3std6thread5local4fast12Key$LT$T$GT$14try_initialize17he81028cbc8b532fdE
000000000005e580 t _ZN3std6thread5local4fast13destroy_value17h56119c028fb830ccE
00000000000b2550 t _ZN3std6thread5local4fast13destroy_value17h83d21ecbf2a48896E
00000000000b2670 t _ZN3std6thread5local4fast13destroy_value17hbc25a062a1b02271E
000000000014c790 t _ZN3std6thread6Thread3new17h572be8648af40ea0E
00000000001c5890 b _ZN3std6thread8ThreadId3new5GUARD17ha93285580134db73E
00000000001c4398 d _ZN3std6thread8ThreadId3new7COUNTER17he0c81007dfb9d5a0E
000000000002c3f0 t _ZN3std7process5abort17h1fa082ae53cbdc87E
000000000002c840 t _ZN3std9panicking11begin_panic17h1162185e4861cde1E
00000000000228f0 t _ZN3std9panicking11begin_panic17h1fd187fdd4ab5e39E
000000000002ab50 t _ZN3std9panicking11begin_panic17h67f622df98fe72c6E
000000000002abc0 t _ZN3std9panicking11begin_panic17habe966cd1089657aE
0000000000026df0 t _ZN3std9panicking11begin_panic17hd07d05c8b69282e2E
0000000000022780 t _ZN3std9panicking11begin_panic17he058a27e5d326366E
0000000000100d20 t _ZN3std9panicking11begin_panic28_$u7b$$u7b$closure$u7d$$u7d$17h756ed25226d2ab98E
00000000001704c0 t _ZN3std9panicking11begin_panic28_$u7b$$u7b$closure$u7d$$u7d$17h88614a032e1e7f6fE
0000000000068ba0 t _ZN3std9panicking11begin_panic28_$u7b$$u7b$closure$u7d$$u7d$17h896a049fbd356ea2E
000000000005f270 t _ZN3std9panicking11begin_panic28_$u7b$$u7b$closure$u7d$$u7d$17h943a8740981566b3E
00000000000afa50 t _ZN3std9panicking11begin_panic28_$u7b$$u7b$closure$u7d$$u7d$17ha3fe1c705cd09e33E
00000000001418d0 t _ZN3std9panicking11begin_panic28_$u7b$$u7b$closure$u7d$$u7d$17hfe0a51fb7cb02f03E
000000000002c1a0 t _ZN3std9panicking11panic_count17is_zero_slow_path17h3869677d3a88395cE
00000000000000e0 b _ZN3std9panicking11panic_count17LOCAL_PANIC_COUNT7__getit5__KEY17ha24fe1b4f0c93f83E
00000000001c59c8 b _ZN3std9panicking11panic_count18GLOBAL_PANIC_COUNT17hef84f6dbe7ef890cE
00000000001c43b0 d _ZN3std9panicking12default_hook28_$u7b$$u7b$closure$u7d$$u7d$11FIRST_PANIC17hc8ce43e9b2aff66eE
000000000016f060 t _ZN3std9panicking19begin_panic_handler28_$u7b$$u7b$closure$u7d$$u7d$17h07f549390938b73fE
000000000016f100 t _ZN3std9panicking20rust_panic_with_hook17h1a5ea2d6c23051aaE
00000000001c5980 b _ZN3std9panicking9HOOK_LOCK17hcf580af1a20c37d8E
0000000000058fe0 t _ZN40_$LT$str$u20$as$u20$core..fmt..Debug$GT$3fmt17hac883bf9d0865ff1E
000000000007c4e0 t _ZN41_$LT$bool$u20$as$u20$core..fmt..Debug$GT$3fmt17h1fff16b7025e3f93E.1972
0000000000058080 t _ZN41_$LT$char$u20$as$u20$core..fmt..Debug$GT$3fmt17h4d9dd0ce987b4dfdE
000000000004bff0 t _ZN42_$LT$$RF$T$u20$as$u20$core..fmt..Debug$GT$3fmt17h007b7151a76770b6E
00000000000537b0 t _ZN42_$LT$$RF$T$u20$as$u20$core..fmt..Debug$GT$3fmt17h0118e50837554cafE
00000000000414b0 t _ZN42_$LT$$RF$T$u20$as$u20$core..fmt..Debug$GT$3fmt17h0257231d95de038aE
000000000005a9d0 t _ZN42_$LT$$RF$T$u20$as$u20$core..fmt..Debug$GT$3fmt17h041dca1c7ecaedc2E
00000000000b9530 t _ZN42_$LT$$RF$T$u20$as$u20$core..fmt..Debug$GT$3fmt17h088e71bfa63b98cbE
0000000000135d70 t _ZN42_$LT$$RF$T$u20$as$u20$core..fmt..Debug$GT$3fmt17h090ea35a61da17c5E
0000000000131720 t _ZN42_$LT$$RF$T$u20$as$u20$core..fmt..Debug$GT$3fmt17h0b4b8d59154c548bE
0000000000051d40 t _ZN42_$LT$$RF$T$u20$as$u20$core..fmt..Debug$GT$3fmt17h0c00e3690c1a8944E
0000000000041ce0 t _ZN42_$LT$$RF$T$u20$as$u20$core..fmt..Debug$GT$3fmt17h0fb31b7b33cf657bE
000000000004d1f0 t _ZN42_$LT$$RF$T$u20$as$u20$core..fmt..Debug$GT$3fmt17h10c0e7030d7cc0bdE
0000000000167ce0 t _ZN42_$LT$$RF$T$u20$as$u20$core..fmt..Debug$GT$3fmt17h11898345b1ebfa60E
0000000000131960 t _ZN42_$LT$$RF$T$u20$as$u20$core..fmt..Debug$GT$3fmt17h122f6b927114f095E
0000000000049b00 t _ZN42_$LT$$RF$T$u20$as$u20$core..fmt..Debug$GT$3fmt17h13cb90e8013ae03cE
000000000016af60 t _ZN42_$LT$$RF$T$u20$as$u20$core..fmt..Debug$GT$3fmt17h157ff373901bdd49E
000000000004a130 t _ZN42_$LT$$RF$T$u20$as$u20$core..fmt..Debug$GT$3fmt17h17e67cf80d0ff58cE
0000000000109ee0 t _ZN42_$LT$$RF$T$u20$as$u20$core..fmt..Debug$GT$3fmt17h18d3a1bff56968bfE
0000000000107500 t _ZN42_$LT$$RF$T$u20$as$u20$core..fmt..Debug$GT$3fmt17h194777f8b4bbcf9cE
0000000000137df0 t _ZN42_$LT$$RF$T$u20$as$u20$core..fmt..Debug$GT$3fmt17h1c6761dd34915cc9E
0000000000107cb0 t _ZN42_$LT$$RF$T$u20$as$u20$core..fmt..Debug$GT$3fmt17h23abc791f1676ef8E
000000000007b4c0 t _ZN42_$LT$$RF$T$u20$as$u20$core..fmt..Debug$GT$3fmt17h266f7625d8557fa1E
0000000000134120 t _ZN42_$LT$$RF$T$u20$as$u20$core..fmt..Debug$GT$3fmt17h2c8484a884f76c69E
0000000000136780 t _ZN42_$LT$$RF$T$u20$as$u20$core..fmt..Debug$GT$3fmt17h2d10ac203479c0bcE
0000000000131980 t _ZN42_$LT$$RF$T$u20$as$u20$core..fmt..Debug$GT$3fmt17h2d5bd7013b9af099E
0000000000131ba0 t _ZN42_$LT$$RF$T$u20$as$u20$core..fmt..Debug$GT$3fmt17h30751259eb78dc13E
000000000005c0d0 t _ZN42_$LT$$RF$T$u20$as$u20$core..fmt..Debug$GT$3fmt17h3b3ce9073d6f3452E
0000000000041ae0 t _ZN42_$LT$$RF$T$u20$as$u20$core..fmt..Debug$GT$3fmt17h3efd36a978c13e5aE
000000000004a1e0 t _ZN42_$LT$$RF$T$u20$as$u20$core..fmt..Debug$GT$3fmt17h3fcefaf3ef8fc4edE
0000000000104d40 t _ZN42_$LT$$RF$T$u20$as$u20$core..fmt..Debug$GT$3fmt17h45294b2ee0385371E
000000000004cee0 t _ZN42_$LT$$RF$T$u20$as$u20$core..fmt..Debug$GT$3fmt17h45303d4cd2554de8E
0000000000107600 t _ZN42_$LT$$RF$T$u20$as$u20$core..fmt..Debug$GT$3fmt17h4562e7dd58e37476E
0000000000051b40 t _ZN42_$LT$$RF$T$u20$as$u20$core..fmt..Debug$GT$3fmt17h46b60185b1a0a4afE
000000000004a290 t _ZN42_$LT$$RF$T$u20$as$u20$core..fmt..Debug$GT$3fmt17h4bdb3ceae4993b15E
000000000004d2b0 t _ZN42_$LT$$RF$T$u20$as$u20$core..fmt..Debug$GT$3fmt17h4d882b258bd75206E
000000000016dde0 t _ZN42_$LT$$RF$T$u20$as$u20$core..fmt..Debug$GT$3fmt17h50a08b024493723bE
0000000000107880 t _ZN42_$LT$$RF$T$u20$as$u20$core..fmt..Debug$GT$3fmt17h51bd0f57446c5c6dE
0000000000049650 t _ZN42_$LT$$RF$T$u20$as$u20$core..fmt..Debug$GT$3fmt17h520865eaf3163db3E
000000000004bcd0 t _ZN42_$LT$$RF$T$u20$as$u20$core..fmt..Debug$GT$3fmt17h59bcff0a7685679eE
0000000000107b40 t _ZN42_$LT$$RF$T$u20$as$u20$core..fmt..Debug$GT$3fmt17h5b0a2697a4476cb3E
0000000000041bc0 t _ZN42_$LT$$RF$T$u20$as$u20$core..fmt..Debug$GT$3fmt17h5bb7a9a1fd8fe009E
0000000000049fa0 t _ZN42_$LT$$RF$T$u20$as$u20$core..fmt..Debug$GT$3fmt17h5cff7347d5a685d3E
000000000004d370 t _ZN42_$LT$$RF$T$u20$as$u20$core..fmt..Debug$GT$3fmt17h609f94cd98c35b81E
0000000000051e20 t _ZN42_$LT$$RF$T$u20$as$u20$core..fmt..Debug$GT$3fmt17h63edb0b191bbb559E
000000000004d430 t _ZN42_$LT$$RF$T$u20$as$u20$core..fmt..Debug$GT$3fmt17h66e5d7531a7e60b0E
00000000001365c0 t _ZN42_$LT$$RF$T$u20$as$u20$core..fmt..Debug$GT$3fmt17h66ee88d861e35d43E
000000000014e840 t _ZN42_$LT$$RF$T$u20$as$u20$core..fmt..Debug$GT$3fmt17h68b3be1683993caaE
0000000000141090 t _ZN42_$LT$$RF$T$u20$as$u20$core..fmt..Debug$GT$3fmt17h6b2a1622bc049c49E
000000000005acd0 t _ZN42_$LT$$RF$T$u20$as$u20$core..fmt..Debug$GT$3fmt17h6befd8842bd4b2ffE
0000000000141150 t _ZN42_$LT$$RF$T$u20$as$u20$core..fmt..Debug$GT$3fmt17h6e3a9e6e9d03956dE
00000000000419b0 t _ZN42_$LT$$RF$T$u20$as$u20$core..fmt..Debug$GT$3fmt17h6ea35aad457b7a24E
000000000005ac10 t _ZN42_$LT$$RF$T$u20$as$u20$core..fmt..Debug$GT$3fmt17h705fdf493c75774dE
0000000000041220 t _ZN42_$LT$$RF$T$u20$as$u20$core..fmt..Debug$GT$3fmt17h711cffb4ccd9e315E
0000000000130500 t _ZN42_$LT$$RF$T$u20$as$u20$core..fmt..Debug$GT$3fmt17h7792817d74413b09E
00000000000ec950 t _ZN42_$LT$$RF$T$u20$as$u20$core..fmt..Debug$GT$3fmt17h7b9e2f1abb8bc47dE
000000000007c570 t _ZN42_$LT$$RF$T$u20$as$u20$core..fmt..Debug$GT$3fmt17h7f4cd91625f0bc93E
0000000000136370 t _ZN42_$LT$$RF$T$u20$as$u20$core..fmt..Debug$GT$3fmt17h8116e5b3c5ec7fb7E
0000000000135c90 t _ZN42_$LT$$RF$T$u20$as$u20$core..fmt..Debug$GT$3fmt17h854089aeb664a9beE
0000000000136bc0 t _ZN42_$LT$$RF$T$u20$as$u20$core..fmt..Debug$GT$3fmt17h869605d54d80b285E
0000000000107960 t _ZN42_$LT$$RF$T$u20$as$u20$core..fmt..Debug$GT$3fmt17h8b64eb61f8be42a1E
000000000016af70 t _ZN42_$LT$$RF$T$u20$as$u20$core..fmt..Debug$GT$3fmt17h8c8a5762a579f0bfE
000000000016ff40 t _ZN42_$LT$$RF$T$u20$as$u20$core..fmt..Debug$GT$3fmt17h8e462e02721a6b6eE
000000000004d4f0 t _ZN42_$LT$$RF$T$u20$as$u20$core..fmt..Debug$GT$3fmt17h914db1c8ad2deae9E
0000000000136400 t _ZN42_$LT$$RF$T$u20$as$u20$core..fmt..Debug$GT$3fmt17h96e07255d4bc55baE
0000000000141210 t _ZN42_$LT$$RF$T$u20$as$u20$core..fmt..Debug$GT$3fmt17h97a482d6f6430ba8E
0000000000049920 t _ZN42_$LT$$RF$T$u20$as$u20$core..fmt..Debug$GT$3fmt17h98c2dcac85786c7cE
0000000000049c00 t _ZN42_$LT$$RF$T$u20$as$u20$core..fmt..Debug$GT$3fmt17h9adf7388243c0bd0E
00000000001305b0 t _ZN42_$LT$$RF$T$u20$as$u20$core..fmt..Debug$GT$3fmt17h9b89174fd43db683E
000000000004a080 t _ZN42_$LT$$RF$T$u20$as$u20$core..fmt..Debug$GT$3fmt17h9dccf4f74b1e89adE
0000000000051a50 t _ZN42_$LT$$RF$T$u20$as$u20$core..fmt..Debug$GT$3fmt17h9def286164246a56E
000000000014a040 t _ZN42_$LT$$RF$T$u20$as$u20$core..fmt..Debug$GT$3fmt17ha1ef94a50d018f52E
0000000000051d00 t _ZN42_$LT$$RF$T$u20$as$u20$core..fmt..Debug$GT$3fmt17ha21e4f163ef282b4E
00000000000528a0 t _ZN42_$LT$$RF$T$u20$as$u20$core..fmt..Debug$GT$3fmt17ha809540f71373fcaE
0000000000049de0 t _ZN42_$LT$$RF$T$u20$as$u20$core..fmt..Debug$GT$3fmt17ha842780588e24297E
0000000000052960 t _ZN42_$LT$$RF$T$u20$as$u20$core..fmt..Debug$GT$3fmt17haa3fe03165bc3c01E
0000000000131d20 t _ZN42_$LT$$RF$T$u20$as$u20$core..fmt..Debug$GT$3fmt17hacabc8c1150a88ddE
0000000000053520 t _ZN42_$LT$$RF$T$u20$as$u20$core..fmt..Debug$GT$3fmt17haf11970b4aa265faE
000000000004d5b0 t _ZN42_$LT$$RF$T$u20$as$u20$core..fmt..Debug$GT$3fmt17hb027fc90f2acdbe5E
000000000012de60 t _ZN42_$LT$$RF$T$u20$as$u20$core..fmt..Debug$GT$3fmt17hb305d4b970481226E
0000000000049a20 t _ZN42_$LT$$RF$T$u20$as$u20$core..fmt..Debug$GT$3fmt17hbcdd6696fb62fbc9E
0000000000107a60 t _ZN42_$LT$$RF$T$u20$as$u20$core..fmt..Debug$GT$3fmt17hbec482d452e74b54E
00000000000fa610 t _ZN42_$LT$$RF$T$u20$as$u20$core..fmt..Debug$GT$3fmt17hbf83db9f2c70f228E
00000000001076e0 t _ZN42_$LT$$RF$T$u20$as$u20$core..fmt..Debug$GT$3fmt17hc07e9266218d20a7E
0000000000051920 t _ZN42_$LT$$RF$T$u20$as$u20$core..fmt..Debug$GT$3fmt17hc1071d7e91934313E
000000000006efc0 t _ZN42_$LT$$RF$T$u20$as$u20$core..fmt..Debug$GT$3fmt17hc209b0e4f8a641bcE
0000000000051cb0 t _ZN42_$LT$$RF$T$u20$as$u20$core..fmt..Debug$GT$3fmt17hc29ca19ad585707bE
00000000001362e0 t _ZN42_$LT$$RF$T$u20$as$u20$core..fmt..Debug$GT$3fmt17hc6fa90084e9caf1dE
0000000000049ec0 t _ZN42_$LT$$RF$T$u20$as$u20$core..fmt..Debug$GT$3fmt17hcc25b749e3a3b56cE
00000000000518b0 t _ZN42_$LT$$RF$T$u20$as$u20$core..fmt..Debug$GT$3fmt17hce6bee24f81b3609E
0000000000135950 t _ZN42_$LT$$RF$T$u20$as$u20$core..fmt..Debug$GT$3fmt17hd46d2ca91bd16918E
0000000000136190 t _ZN42_$LT$$RF$T$u20$as$u20$core..fmt..Debug$GT$3fmt17hd4788753cdf219fdE
0000000000107d90 t _ZN42_$LT$$RF$T$u20$as$u20$core..fmt..Debug$GT$3fmt17hd502345d5190ca00E
0000000000136670 t _ZN42_$LT$$RF$T$u20$as$u20$core..fmt..Debug$GT$3fmt17hd7f046a961301b55E
000000000007c6d0 t _ZN42_$LT$$RF$T$u20$as$u20$core..fmt..Debug$GT$3fmt17hd9c6274d5db3ac40E
0000000000136ca0 t _ZN42_$LT$$RF$T$u20$as$u20$core..fmt..Debug$GT$3fmt17hdaaf36c674f47d67E
000000000005a710 t _ZN42_$LT$$RF$T$u20$as$u20$core..fmt..Debug$GT$3fmt17hdae6bd34218ff123E
0000000000041dd0 t _ZN42_$LT$$RF$T$u20$as$u20$core..fmt..Debug$GT$3fmt17hde6f15a2227f3b30E
00000000001077a0 t _ZN42_$LT$$RF$T$u20$as$u20$core..fmt..Debug$GT$3fmt17he338c9abb4fae1f0E
0000000000136510 t _ZN42_$LT$$RF$T$u20$as$u20$core..fmt..Debug$GT$3fmt17he598615e9b6cabc5E
0000000000135f50 t _ZN42_$LT$$RF$T$u20$as$u20$core..fmt..Debug$GT$3fmt17hec9fb74f0fb4d89cE
0000000000052890 t _ZN42_$LT$$RF$T$u20$as$u20$core..fmt..Debug$GT$3fmt17heedab49e559851a7E
0000000000049d00 t _ZN42_$LT$$RF$T$u20$as$u20$core..fmt..Debug$GT$3fmt17hf4f74bc7cc32cdb4E
0000000000131d30 t _ZN42_$LT$$RF$T$u20$as$u20$core..fmt..Debug$GT$3fmt17hf65403ef4b97e134E
000000000006efe0 t _ZN42_$LT$$RF$T$u20$as$u20$core..fmt..Debug$GT$3fmt17hf6f06c5e409448d4E
000000000014d2f0 t _ZN42_$LT$$RF$T$u20$as$u20$core..fmt..Debug$GT$3fmt17hf8ecb025b7933e78E
0000000000135a00 t _ZN42_$LT$$RF$T$u20$as$u20$core..fmt..Debug$GT$3fmt17hfe8f28c77dfd7579E
0000000000136050 t _ZN42_$LT$$RF$T$u20$as$u20$core..fmt..Debug$GT$3fmt17hffb5ae2fcfb99a44E
0000000000059440 t _ZN43_$LT$char$u20$as$u20$core..fmt..Display$GT$3fmt17hb57ca16fa9c4df9aE
0000000000066460 t _ZN43_$LT$log..NopLogger$u20$as$u20$log..Log$GT$3log17ha4c0de45eab1bd85E
0000000000066470 t _ZN43_$LT$log..NopLogger$u20$as$u20$log..Log$GT$5flush17h71a40287d2c97fb0E
0000000000066450 t _ZN43_$LT$log..NopLogger$u20$as$u20$log..Log$GT$7enabled17hf45640c57e15595bE
00000000000b9d20 t _ZN43_$LT$T$u20$as$u20$downcast_rs..Downcast$GT$10as_any_mut17h08e5349f8f8dc574E
00000000000afc30 t _ZN43_$LT$T$u20$as$u20$downcast_rs..Downcast$GT$10as_any_mut17h0e16fa190c8f6a39E
00000000000bdfa0 t _ZN43_$LT$T$u20$as$u20$downcast_rs..Downcast$GT$10as_any_mut17h1386a208e5f25ac2E
00000000000bdfb0 t _ZN43_$LT$T$u20$as$u20$downcast_rs..Downcast$GT$10as_any_mut17h1c7236dceeb5e818E
00000000000c4f50 t _ZN43_$LT$T$u20$as$u20$downcast_rs..Downcast$GT$10as_any_mut17h223b0de54f507a89E
000000000009aaf0 t _ZN43_$LT$T$u20$as$u20$downcast_rs..Downcast$GT$10as_any_mut17h3a4dfba0f9a7bed9E
000000000002d1e0 t _ZN43_$LT$T$u20$as$u20$downcast_rs..Downcast$GT$10as_any_mut17h3bb7cee0ebbd6be1E
00000000000bdfc0 t _ZN43_$LT$T$u20$as$u20$downcast_rs..Downcast$GT$10as_any_mut17h4132c7b671038fd8E
00000000000abb70 t _ZN43_$LT$T$u20$as$u20$downcast_rs..Downcast$GT$10as_any_mut17h42a74929193a8603E
00000000000c4f60 t _ZN43_$LT$T$u20$as$u20$downcast_rs..Downcast$GT$10as_any_mut17h52dd5505dcfff890E
00000000000abb80 t _ZN43_$LT$T$u20$as$u20$downcast_rs..Downcast$GT$10as_any_mut17h7eeb9d9c2a6bb72eE
00000000000ecaa0 t _ZN43_$LT$T$u20$as$u20$downcast_rs..Downcast$GT$10as_any_mut17h7fb17b75ccb5697fE
000000000009ab00 t _ZN43_$LT$T$u20$as$u20$downcast_rs..Downcast$GT$10as_any_mut17h80cb5885d306d823E
00000000000cf820 t _ZN43_$LT$T$u20$as$u20$downcast_rs..Downcast$GT$10as_any_mut17h8c0bd5be7316db07E
00000000000afc40 t _ZN43_$LT$T$u20$as$u20$downcast_rs..Downcast$GT$10as_any_mut17h927ff296f657fab5E
00000000000abb90 t _ZN43_$LT$T$u20$as$u20$downcast_rs..Downcast$GT$10as_any_mut17ha9779b31cde51c51E
00000000000a1b40 t _ZN43_$LT$T$u20$as$u20$downcast_rs..Downcast$GT$10as_any_mut17hb0d238aeea7da346E
00000000000cf830 t _ZN43_$LT$T$u20$as$u20$downcast_rs..Downcast$GT$10as_any_mut17hf38bb89f800d1733E
00000000000ecab0 t _ZN43_$LT$T$u20$as$u20$downcast_rs..Downcast$GT$10as_any_mut17hfea1659635f2e6caE
00000000000abb10 t _ZN43_$LT$T$u20$as$u20$downcast_rs..Downcast$GT$11into_any_rc17h098d363ba7e7f1deE
00000000000eca60 t _ZN43_$LT$T$u20$as$u20$downcast_rs..Downcast$GT$11into_any_rc17h0d67a9797a6c49c7E
00000000000bdf40 t _ZN43_$LT$T$u20$as$u20$downcast_rs..Downcast$GT$11into_any_rc17h0ed2a6f57687e4c9E
00000000000bdf50 t _ZN43_$LT$T$u20$as$u20$downcast_rs..Downcast$GT$11into_any_rc17h1c6f2891f2ae709cE
00000000000b9d00 t _ZN43_$LT$T$u20$as$u20$downcast_rs..Downcast$GT$11into_any_rc17h25b0004b2be58489E
00000000000afbf0 t _ZN43_$LT$T$u20$as$u20$downcast_rs..Downcast$GT$11into_any_rc17h2de46173bda69843E
00000000000eca70 t _ZN43_$LT$T$u20$as$u20$downcast_rs..Downcast$GT$11into_any_rc17h31f64bf63c118151E
000000000009aab0 t _ZN43_$LT$T$u20$as$u20$downcast_rs..Downcast$GT$11into_any_rc17h3a7b022c2f1e916cE
000000000009aac0 t _ZN43_$LT$T$u20$as$u20$downcast_rs..Downcast$GT$11into_any_rc17h65191c129bee7637E
00000000000bdf60 t _ZN43_$LT$T$u20$as$u20$downcast_rs..Downcast$GT$11into_any_rc17h7b7624db084d5342E
00000000000cf7e0 t _ZN43_$LT$T$u20$as$u20$downcast_rs..Downcast$GT$11into_any_rc17h8bfd735052da67fbE
00000000000cf7f0 t _ZN43_$LT$T$u20$as$u20$downcast_rs..Downcast$GT$11into_any_rc17h8ca89e1d5bc10450E
00000000000abb20 t _ZN43_$LT$T$u20$as$u20$downcast_rs..Downcast$GT$11into_any_rc17h936566ccafbcdcc4E
00000000000afc00 t _ZN43_$LT$T$u20$as$u20$downcast_rs..Downcast$GT$11into_any_rc17h93b427aea39195a2E
00000000000c4f10 t _ZN43_$LT$T$u20$as$u20$downcast_rs..Downcast$GT$11into_any_rc17hb43e670fcf3258a9E
000000000002d1c0 t _ZN43_$LT$T$u20$as$u20$downcast_rs..Downcast$GT$11into_any_rc17hc95061aaa31d6590E
00000000000a1b20 t _ZN43_$LT$T$u20$as$u20$downcast_rs..Downcast$GT$11into_any_rc17he56f7e54ffba0badE
00000000000abb30 t _ZN43_$LT$T$u20$as$u20$downcast_rs..Downcast$GT$11into_any_rc17hfc7fd608ce353186E
00000000000c4f20 t _ZN43_$LT$T$u20$as$u20$downcast_rs..Downcast$GT$11into_any_rc17hffdeb30618ca692eE
00000000000cf800 t _ZN43_$LT$T$u20$as$u20$downcast_rs..Downcast$GT$6as_any17h03265d67bbde3ecbE
00000000000b9d10 t _ZN43_$LT$T$u20$as$u20$downcast_rs..Downcast$GT$6as_any17h0efed7fb943ac785E
00000000000c4f30 t _ZN43_$LT$T$u20$as$u20$downcast_rs..Downcast$GT$6as_any17h0f82774541ee529dE
00000000000abb40 t _ZN43_$LT$T$u20$as$u20$downcast_rs..Downcast$GT$6as_any17h132da835fa84e83bE
00000000000abb50 t _ZN43_$LT$T$u20$as$u20$downcast_rs..Downcast$GT$6as_any17h195c398244f38b65E
00000000000cf810 t _ZN43_$LT$T$u20$as$u20$downcast_rs..Downcast$GT$6as_any17h364efeabfa17083dE
00000000000eca80 t _ZN43_$LT$T$u20$as$u20$downcast_rs..Downcast$GT$6as_any17h3e085df61d324599E
000000000002d1d0 t _ZN43_$LT$T$u20$as$u20$downcast_rs..Downcast$GT$6as_any17h412967063ee949d1E
00000000000afc10 t _ZN43_$LT$T$u20$as$u20$downcast_rs..Downcast$GT$6as_any17h45315b48a7ebd487E
00000000000a1b30 t _ZN43_$LT$T$u20$as$u20$downcast_rs..Downcast$GT$6as_any17h4d94043d17f58654E
00000000000abb60 t _ZN43_$LT$T$u20$as$u20$downcast_rs..Downcast$GT$6as_any17h52db61b14171907dE
00000000000bdf70 t _ZN43_$LT$T$u20$as$u20$downcast_rs..Downcast$GT$6as_any17h6f08016a9e253cbbE
000000000009aad0 t _ZN43_$LT$T$u20$as$u20$downcast_rs..Downcast$GT$6as_any17h8c3956b16ff9b4cbE
00000000000bdf80 t _ZN43_$LT$T$u20$as$u20$downcast_rs..Downcast$GT$6as_any17h9dd813c28f26662eE
00000000000bdf90 t _ZN43_$LT$T$u20$as$u20$downcast_rs..Downcast$GT$6as_any17ha0db041df7a12217E
00000000000eca90 t _ZN43_$LT$T$u20$as$u20$downcast_rs..Downcast$GT$6as_any17hc794c01d12665d08E
00000000000afc20 t _ZN43_$LT$T$u20$as$u20$downcast_rs..Downcast$GT$6as_any17hd2d8010f8c1fe2a1E
00000000000c4f40 t _ZN43_$LT$T$u20$as$u20$downcast_rs..Downcast$GT$6as_any17hdd7cab4c95885e4cE
000000000009aae0 t _ZN43_$LT$T$u20$as$u20$downcast_rs..Downcast$GT$6as_any17hea7b0c7ca5bdc379E
00000000000bd870 t _ZN43_$LT$T$u20$as$u20$downcast_rs..Downcast$GT$8into_any17h19bbd97fc329cc80E
00000000000afa80 t _ZN43_$LT$T$u20$as$u20$downcast_rs..Downcast$GT$8into_any17h2e87bc6fe7cd7ee3E
00000000000b9770 t _ZN43_$LT$T$u20$as$u20$downcast_rs..Downcast$GT$8into_any17h32e772eb19f72cbdE
00000000000bde50 t _ZN43_$LT$T$u20$as$u20$downcast_rs..Downcast$GT$8into_any17h485fd0883bc355ccE
00000000000c4ed0 t _ZN43_$LT$T$u20$as$u20$downcast_rs..Downcast$GT$8into_any17h4b1ba94b5f174266E
000000000002d1b0 t _ZN43_$LT$T$u20$as$u20$downcast_rs..Downcast$GT$8into_any17h5588213800037984E
00000000000cf7a0 t _ZN43_$LT$T$u20$as$u20$downcast_rs..Downcast$GT$8into_any17h5eb96404b6254aefE
00000000000cf7c0 t _ZN43_$LT$T$u20$as$u20$downcast_rs..Downcast$GT$8into_any17h5f0d1f460267040aE
00000000000afbd0 t _ZN43_$LT$T$u20$as$u20$downcast_rs..Downcast$GT$8into_any17h5fd9b4c6b03f22c2E
00000000000a17a0 t _ZN43_$LT$T$u20$as$u20$downcast_rs..Downcast$GT$8into_any17h713dde166ff2e35bE
000000000009a700 t _ZN43_$LT$T$u20$as$u20$downcast_rs..Downcast$GT$8into_any17h7365f7801b12f1adE
000000000009aa30 t _ZN43_$LT$T$u20$as$u20$downcast_rs..Downcast$GT$8into_any17h759f8582638ec952E
00000000000bdf20 t _ZN43_$LT$T$u20$as$u20$downcast_rs..Downcast$GT$8into_any17h79d4875b585b0281E
00000000000eca20 t _ZN43_$LT$T$u20$as$u20$downcast_rs..Downcast$GT$8into_any17h9696fbc7b5d054adE
00000000000ab890 t _ZN43_$LT$T$u20$as$u20$downcast_rs..Downcast$GT$8into_any17ha5580a16d0d30296E
00000000000ab8b0 t _ZN43_$LT$T$u20$as$u20$downcast_rs..Downcast$GT$8into_any17hadb6a72f250bd35dE
00000000000eca40 t _ZN43_$LT$T$u20$as$u20$downcast_rs..Downcast$GT$8into_any17hbcefa9e8c9767155E
00000000000c4ef0 t _ZN43_$LT$T$u20$as$u20$downcast_rs..Downcast$GT$8into_any17hc2bedb7a9d7be43cE
00000000000ab920 t _ZN43_$LT$T$u20$as$u20$downcast_rs..Downcast$GT$8into_any17he71eec878497a3dfE
00000000000c4eb0 t _ZN44_$LT$$RF$T$u20$as$u20$core..fmt..Display$GT$3fmt17h00ed63b74868ca5dE
000000000016ef60 t _ZN44_$LT$$RF$T$u20$as$u20$core..fmt..Display$GT$3fmt17h458317def07c8b51E
000000000014dc00 t _ZN44_$LT$$RF$T$u20$as$u20$core..fmt..Display$GT$3fmt17h4c6a1916626f85a5E
0000000000057de0 t _ZN44_$LT$$RF$T$u20$as$u20$core..fmt..Display$GT$3fmt17h5a1fd254f96db485E
000000000005f2a0 t _ZN44_$LT$$RF$T$u20$as$u20$core..fmt..Display$GT$3fmt17h5dd00cc0cfb4543aE
0000000000057da0 t _ZN44_$LT$$RF$T$u20$as$u20$core..fmt..Display$GT$3fmt17h7b6d8d4dbaaf0bb8E
0000000000136de0 t _ZN44_$LT$$RF$T$u20$as$u20$core..fmt..Display$GT$3fmt17h93521ef3035e6ca9E
000000000007db70 t _ZN44_$LT$$RF$T$u20$as$u20$core..fmt..Display$GT$3fmt17hb65a02a4e2839b0dE
000000000014b830 t _ZN44_$LT$$RF$T$u20$as$u20$core..fmt..Display$GT$3fmt17hc94e01f01fd4183eE
000000000005f2c0 t _ZN44_$LT$$RF$T$u20$as$u20$core..fmt..Display$GT$3fmt17hcf47765a67a9f472E
000000000012d1d0 t _ZN44_$LT$$RF$T$u20$as$u20$core..fmt..Display$GT$3fmt17hf0aaafba66998245E
0000000000149db0 t _ZN45_$LT$$LP$$RP$$u20$as$u20$core..fmt..Debug$GT$3fmt17h52901ba15f907fd2E
000000000016a600 t _ZN45_$LT$$RF$T$u20$as$u20$core..fmt..UpperHex$GT$3fmt17h726aede8c1982005E
0000000000062030 t _ZN47_$LT$env_logger..Logger$u20$as$u20$log..Log$GT$3log17h075e454781e117d9E
00000000000645c0 t _ZN47_$LT$env_logger..Logger$u20$as$u20$log..Log$GT$3log28_$u7b$$u7b$closure$u7d$$u7d$17h4a60b0e62d4ce3e9E
0000000000000030 b _ZN47_$LT$env_logger..Logger$u20$as$u20$log..Log$GT$3log9FORMATTER7__getit5__KEY17h5e8cc4fd3d040ac1E
0000000000061fa0 t _ZN47_$LT$env_logger..Logger$u20$as$u20$log..Log$GT$7enabled17h713e4b6210c887e0E
0000000000052030 t _ZN4core10intrinsics17const_eval_select17h071c2acfcc0499ebE
000000000005a890 t _ZN4core3fmt3num3imp52_$LT$impl$u20$core..fmt..Display$u20$for$u20$i32$GT$3fmt17hcbc9bb11af5dcab8E
0000000000057b10 t _ZN4core3fmt3num3imp52_$LT$impl$u20$core..fmt..Display$u20$for$u20$u32$GT$3fmt17hb13b241310fc9024E
0000000000052b20 t _ZN4core3fmt3num3imp52_$LT$impl$u20$core..fmt..Display$u20$for$u20$u64$GT$3fmt17h41c068c172b5c26cE
00000000001356f0 t _ZN4core3fmt3num49_$LT$impl$u20$core..fmt..Debug$u20$for$u20$u8$GT$3fmt17h6bbef3f1fa5afd6bE.6803
000000000016ae60 t _ZN4core3fmt3num50_$LT$impl$u20$core..fmt..Debug$u20$for$u20$i32$GT$3fmt17ha5d22c4694d88383E.7372
0000000000058320 t _ZN4core3fmt3num52_$LT$impl$u20$core..fmt..Debug$u20$for$u20$usize$GT$3fmt17hadfe8dc98ec991eaE
000000000005bf30 t _ZN4core3fmt3num53_$LT$impl$u20$core..fmt..LowerHex$u20$for$u20$i64$GT$3fmt17h063ce37874867758E
000000000005bea0 t _ZN4core3fmt3num53_$LT$impl$u20$core..fmt..UpperHex$u20$for$u20$i32$GT$3fmt17h9e91b967814e9835E
000000000005ae00 t _ZN4core3fmt5float29float_to_decimal_common_exact17h3777541e5d36aa72E
000000000005b8c0 t _ZN4core3fmt5float29float_to_decimal_common_exact17hb7eb80c1adb46ec8E
000000000005bc10 t _ZN4core3fmt5float32float_to_decimal_common_shortest17h839f1f4720f13630E
000000000005b120 t _ZN4core3fmt5float32float_to_decimal_common_shortest17h960f2ccb12eb74eeE
000000000005b890 t _ZN4core3fmt5float52_$LT$impl$u20$core..fmt..Display$u20$for$u20$f32$GT$3fmt17h62c82ccd57e491d5E
000000000005be70 t _ZN4core3fmt5float52_$LT$impl$u20$core..fmt..Display$u20$for$u20$f64$GT$3fmt17hc6f9bd1f851ffabfE
00000000000656f0 t _ZN4core3fmt5Write10write_char17h5a3cdb6d4fd926c8E
0000000000065880 t _ZN4core3fmt5Write10write_char17h950a58a15a09f4bfE
0000000000058b10 t _ZN4core3fmt5Write10write_char17hcf28a97492ae0e83E
000000000016cc90 t _ZN4core3fmt5Write10write_char17hd5957b4a7b65715fE
000000000014ce40 t _ZN4core3fmt5Write10write_char17he60ba81fdeb7a863E
000000000016c650 t _ZN4core3fmt5Write10write_char17hfeadfe7ad0078230E
0000000000053570 t _ZN4core3fmt5write17h753c7571fa063ecbE
000000000016c7f0 t _ZN4core3fmt5Write9write_fmt17h0ce9331096269665E
000000000005f060 t _ZN4core3fmt5Write9write_fmt17h6fbfcf491bae8a2bE
0000000000065a10 t _ZN4core3fmt5Write9write_fmt17h71a161c20fa4e978E
0000000000065b90 t _ZN4core3fmt5Write9write_fmt17h83e33be2bbf4dc60E
000000000016cd70 t _ZN4core3fmt5Write9write_fmt17h858d4b463591c65dE
00000000001340a0 t _ZN4core3fmt5Write9write_fmt17h9ec1f34cd83d3f2aE
0000000000100110 t _ZN4core3fmt5Write9write_fmt17he2c1380f67147d2dE
0000000000058bf0 t _ZN4core3fmt5Write9write_fmt17hf53d507f9dbb92baE
000000000014cfd0 t _ZN4core3fmt5Write9write_fmt17hfc6eb2ebb7816426E
0000000000058d70 t _ZN4core3fmt8builders10DebugTuple5field17haea2741e2f373f95E
0000000000058960 t _ZN4core3fmt8builders11DebugStruct5field17h0b87c66cf63f7e67E
0000000000058ec0 t _ZN4core3fmt8builders8DebugSet5entry17h1307760c46ffbad8E
0000000000052f20 t _ZN4core3fmt9Formatter12pad_integral12write_prefix17h25d18502dd9a3b0cE
0000000000052c60 t _ZN4core3fmt9Formatter12pad_integral17h0d78f6e30c32f20dE
000000000005b360 t _ZN4core3fmt9Formatter19pad_formatted_parts17h45f3729d14c29cf7E
000000000005b5a0 t _ZN4core3fmt9Formatter21write_formatted_parts17hd8c875420b9c19b2E
0000000000052f70 t _ZN4core3fmt9Formatter3pad17h26451b5c967f5a0cE
000000000005ad70 t _ZN4core3num60_$LT$impl$u20$core..str..traits..FromStr$u20$for$u20$u64$GT$8from_str17hfbffaa04b785ab0fE
0000000000053cd0 t _ZN4core3num6bignum8Big32x4010mul_digits17h773e3fdd30c4b80fE
0000000000055510 t _ZN4core3num6bignum8Big32x408mul_pow217hbb412398bb197f8eE
0000000000057900 t _ZN4core3num7flt2dec17digits_to_dec_str17h88e6c55b5cdf889aE
0000000000175778 r _ZN4core3num7flt2dec8strategy5grisu12CACHED_POW1017hb593b1a9c5c9d8fbE
0000000000057790 t _ZN4core3num7flt2dec8strategy5grisu16format_exact_opt14possibly_round17hc0a2c303429d0288E
0000000000057310 t _ZN4core3num7flt2dec8strategy5grisu16format_exact_opt17h3522555594b9dd15E
0000000000056a80 t _ZN4core3num7flt2dec8strategy5grisu19format_shortest_opt17h193d815c16bcba27E
00000000001755e0 r _ZN4core3num7flt2dec8strategy6dragon10POW10TO12817h64db34a997591d62E
0000000000175618 r _ZN4core3num7flt2dec8strategy6dragon10POW10TO25617h44334cb83ca92348E
0000000000055950 t _ZN4core3num7flt2dec8strategy6dragon12format_exact17hde99fe082f64270eE
0000000000054070 t _ZN4core3num7flt2dec8strategy6dragon15format_shortest17h7f3d8dcd455a2c41E
000000000017555c r _ZN4core3num7flt2dec8strategy6dragon5POW1017h8dc788f8c0e59fc0E
0000000000175584 r _ZN4core3num7flt2dec8strategy6dragon8TWOPOW1017hbe8146fe510d7727E
00000000000539e0 t _ZN4core3num7flt2dec8strategy6dragon9mul_pow1017h9e02cefd337af772E
00000000001755ac r _ZN4core3num7flt2dec8strategy6dragon9POW10TO1617h8e3738d1d696d591E
00000000001755b4 r _ZN4core3num7flt2dec8strategy6dragon9POW10TO3217hc7d2bef2d6e5590bE
00000000001755c4 r _ZN4core3num7flt2dec8strategy6dragon9POW10TO6417hf2f91b21130cb2b5E
00000000000dc1c0 t _ZN4core3ops8function2Fn4call17h183a2881346a2719E
00000000000c32c0 t _ZN4core3ops8function2Fn4call17h2342e2fb21ed4c6aE
00000000000b6fa0 t _ZN4core3ops8function2Fn4call17h3424c45f838142feE
00000000000bd230 t _ZN4core3ops8function2Fn4call17h38b89c9b00d651ceE
00000000000b72c0 t _ZN4core3ops8function2Fn4call17h5e55d49eb05957deE
00000000000d35b0 t _ZN4core3ops8function2Fn4call17h68b916fb7fd198daE
00000000000b7230 t _ZN4core3ops8function2Fn4call17h8b29125d03e5e569E
00000000000c2ff0 t _ZN4core3ops8function2Fn4call17h9bf8bb209cd13057E
00000000000b7120 t _ZN4core3ops8function2Fn4call17he630d88881843726E
00000000000b6f20 t _ZN4core3ops8function5FnMut8call_mut17h0f709a2ecd98ff71E
00000000000bd1c0 t _ZN4core3ops8function5FnMut8call_mut17h19954df2f990c990E
00000000000c3060 t _ZN4core3ops8function5FnMut8call_mut17h581f187d5a9f883cE
00000000000c2f80 t _ZN4core3ops8function5FnMut8call_mut17h7a85fa550b93c79bE
00000000000d3590 t _ZN4core3ops8function5FnMut8call_mut17h97d9aa18c3fa824cE
00000000000b72b0 t _ZN4core3ops8function5FnMut8call_mut17haf7a8632542d0d05E
00000000000c3250 t _ZN4core3ops8function5FnMut8call_mut17hcc6ba9b28f25a6feE
00000000000b70a0 t _ZN4core3ops8function5FnMut8call_mut17hdbc2bdc3c57ea6a3E
00000000000b7210 t _ZN4core3ops8function5FnMut8call_mut17he9f0a4e63f911ab2E
00000000000d3570 t _ZN4core3ops8function6FnOnce40call_once$u7b$$u7b$vtable.shim$u7d$$u7d$17h03e21803f1618c07E
0000000000070990 t _ZN4core3ops8function6FnOnce40call_once$u7b$$u7b$vtable.shim$u7d$$u7d$17h0f91e73ab3b7b899E
000000000006f7b0 t _ZN4core3ops8function6FnOnce40call_once$u7b$$u7b$vtable.shim$u7d$$u7d$17h18c2f60fd59388edE
00000000000cf850 t _ZN4core3ops8function6FnOnce40call_once$u7b$$u7b$vtable.shim$u7d$$u7d$17h1b3378382137c6ebE
00000000000ec690 t _ZN4core3ops8function6FnOnce40call_once$u7b$$u7b$vtable.shim$u7d$$u7d$17h23538d8ef0f2a6e5E
00000000000dc1b0 t _ZN4core3ops8function6FnOnce40call_once$u7b$$u7b$vtable.shim$u7d$$u7d$17h29e6538692b5385bE
00000000000f7040 t _ZN4core3ops8function6FnOnce40call_once$u7b$$u7b$vtable.shim$u7d$$u7d$17h2eccf50b3ea879ffE
000000000016eb50 t _ZN4core3ops8function6FnOnce40call_once$u7b$$u7b$vtable.shim$u7d$$u7d$17h341d1a601e89ca64E
00000000000ec3e0 t _ZN4core3ops8function6FnOnce40call_once$u7b$$u7b$vtable.shim$u7d$$u7d$17h34f2efee0ee45f61E
000000000011ca20 t _ZN4core3ops8function6FnOnce40call_once$u7b$$u7b$vtable.shim$u7d$$u7d$17h355d2f4d9bcde2b9E
00000000000c2f10 t _ZN4core3ops8function6FnOnce40call_once$u7b$$u7b$vtable.shim$u7d$$u7d$17h4bdc907e4edff671E
0000000000070810 t _ZN4core3ops8function6FnOnce40call_once$u7b$$u7b$vtable.shim$u7d$$u7d$17h564278602a1d6222E
000000000006f9d0 t _ZN4core3ops8function6FnOnce40call_once$u7b$$u7b$vtable.shim$u7d$$u7d$17h6846a9aad2683884E
00000000000f7020 t _ZN4core3ops8function6FnOnce40call_once$u7b$$u7b$vtable.shim$u7d$$u7d$17h689b29ed558a581dE
000000000006fc70 t _ZN4core3ops8function6FnOnce40call_once$u7b$$u7b$vtable.shim$u7d$$u7d$17h69219f5a4c6df8e0E
0000000000070610 t _ZN4core3ops8function6FnOnce40call_once$u7b$$u7b$vtable.shim$u7d$$u7d$17h6a6c4a133081fedbE
00000000000ebe60 t _ZN4core3ops8function6FnOnce40call_once$u7b$$u7b$vtable.shim$u7d$$u7d$17h768df711aa03a2a5E
00000000000ebda0 t _ZN4core3ops8function6FnOnce40call_once$u7b$$u7b$vtable.shim$u7d$$u7d$17h8196a9ff20376d48E
00000000000ec5d0 t _ZN4core3ops8function6FnOnce40call_once$u7b$$u7b$vtable.shim$u7d$$u7d$17h8226b12395123581E
00000000000ec7d0 t _ZN4core3ops8function6FnOnce40call_once$u7b$$u7b$vtable.shim$u7d$$u7d$17h86033f2406a8217bE
000000000006fbd0 t _ZN4core3ops8function6FnOnce40call_once$u7b$$u7b$vtable.shim$u7d$$u7d$17h8a374fba8f381641E
000000000006f5b0 t _ZN4core3ops8function6FnOnce40call_once$u7b$$u7b$vtable.shim$u7d$$u7d$17h911d1676a201ffacE
00000000000ead60 t _ZN4core3ops8function6FnOnce40call_once$u7b$$u7b$vtable.shim$u7d$$u7d$17h9136d9ff42c9ce5fE
000000000006fb10 t _ZN4core3ops8function6FnOnce40call_once$u7b$$u7b$vtable.shim$u7d$$u7d$17h934a80227e0a7b6fE
000000000016c980 t _ZN4core3ops8function6FnOnce40call_once$u7b$$u7b$vtable.shim$u7d$$u7d$17h945aafa10f6490f0E
000000000016bac0 t _ZN4core3ops8function6FnOnce40call_once$u7b$$u7b$vtable.shim$u7d$$u7d$17h94c1201913bf1d72E
00000000000ec0a0 t _ZN4core3ops8function6FnOnce40call_once$u7b$$u7b$vtable.shim$u7d$$u7d$17h9726096f903e8199E
00000000000c33a0 t _ZN4core3ops8function6FnOnce40call_once$u7b$$u7b$vtable.shim$u7d$$u7d$17h9f932818f30c0671E
000000000006f2f0 t _ZN4core3ops8function6FnOnce40call_once$u7b$$u7b$vtable.shim$u7d$$u7d$17ha08ec2cd61ad8a4cE
00000000000708d0 t _ZN4core3ops8function6FnOnce40call_once$u7b$$u7b$vtable.shim$u7d$$u7d$17ha334d3b30410f781E
00000000000f5bb0 t _ZN4core3ops8function6FnOnce40call_once$u7b$$u7b$vtable.shim$u7d$$u7d$17ha67ace11a9a00b7dE
00000000000b6ea0 t _ZN4core3ops8function6FnOnce40call_once$u7b$$u7b$vtable.shim$u7d$$u7d$17hab85c471963ee3acE
00000000000ec300 t _ZN4core3ops8function6FnOnce40call_once$u7b$$u7b$vtable.shim$u7d$$u7d$17hafb7fd9b49208114E
000000000016e480 t _ZN4core3ops8function6FnOnce40call_once$u7b$$u7b$vtable.shim$u7d$$u7d$17hafc9ea0deeca9ae4E
00000000000ebce0 t _ZN4core3ops8function6FnOnce40call_once$u7b$$u7b$vtable.shim$u7d$$u7d$17hb1a57251f48ed142E
000000000016e270 t _ZN4core3ops8function6FnOnce40call_once$u7b$$u7b$vtable.shim$u7d$$u7d$17hb2c238a9aed155b2E
00000000000704d0 t _ZN4core3ops8function6FnOnce40call_once$u7b$$u7b$vtable.shim$u7d$$u7d$17hb5d6ba6879087e2fE
00000000000ebc20 t _ZN4core3ops8function6FnOnce40call_once$u7b$$u7b$vtable.shim$u7d$$u7d$17hbdf12ba7d9caa06cE
00000000000cf970 t _ZN4core3ops8function6FnOnce40call_once$u7b$$u7b$vtable.shim$u7d$$u7d$17hc25c270d27036c18E
00000000000b7020 t _ZN4core3ops8function6FnOnce40call_once$u7b$$u7b$vtable.shim$u7d$$u7d$17hc34b782ccb7a4931E
00000000000706d0 t _ZN4core3ops8function6FnOnce40call_once$u7b$$u7b$vtable.shim$u7d$$u7d$17hdb145015ff190d61E
000000000006f6f0 t _ZN4core3ops8function6FnOnce40call_once$u7b$$u7b$vtable.shim$u7d$$u7d$17hdc28554454645347E
00000000000b71f0 t _ZN4core3ops8function6FnOnce40call_once$u7b$$u7b$vtable.shim$u7d$$u7d$17hdc849e19991480b5E
000000000006f370 t _ZN4core3ops8function6FnOnce40call_once$u7b$$u7b$vtable.shim$u7d$$u7d$17hde720427400a99edE
00000000000eb5a0 t _ZN4core3ops8function6FnOnce40call_once$u7b$$u7b$vtable.shim$u7d$$u7d$17he20f61ba8fb6fc2cE
00000000000bd150 t _ZN4core3ops8function6FnOnce40call_once$u7b$$u7b$vtable.shim$u7d$$u7d$17heaa6b3e9eeb16edeE
00000000000b72a0 t _ZN4core3ops8function6FnOnce40call_once$u7b$$u7b$vtable.shim$u7d$$u7d$17hef18cf4578a6841eE
000000000005f5a0 t _ZN4core3ops8function6FnOnce40call_once$u7b$$u7b$vtable.shim$u7d$$u7d$17hf04ee886186d0b84E
00000000000c31e0 t _ZN4core3ops8function6FnOnce40call_once$u7b$$u7b$vtable.shim$u7d$$u7d$17hf31ef5079d1da066E
0000000000070310 t _ZN4core3ops8function6FnOnce40call_once$u7b$$u7b$vtable.shim$u7d$$u7d$17hfca744501e6e30d5E
000000000006df80 t _ZN4core3ops8function6FnOnce9call_once17h25e3825f9e18959fE
0000000000052b00 t _ZN4core3ops8function6FnOnce9call_once17h2acfc574b0537e71E
00000000000de050 t _ZN4core3ops8function6FnOnce9call_once17h3f5b520de8d43138E
00000000000ddf60 t _ZN4core3ops8function6FnOnce9call_once17h84a0d687ae1fa93fE
000000000006df90 t _ZN4core3ops8function6FnOnce9call_once17h984dd637508929f0E
0000000000052040 t _ZN4core3ops8function6FnOnce9call_once17hc3c0c70f3748d650E
000000000006df50 t _ZN4core3ops8function6FnOnce9call_once17hd5789c00bbed7b1bE
000000000014c8a0 t _ZN4core3ptr100drop_in_place$LT$$RF$mut$u20$std..io..Write..write_fmt..Adapter$LT$alloc..vec..Vec$LT$u8$GT$$GT$$GT$17h8becb7000e6f1edfE
00000000000bd880 t _ZN4core3ptr100drop_in_place$LT$mmtk..plan..generational..copying..global..GenCopy$LT$mmtk_openjdk..OpenJDK$GT$$GT$17hb19ce69829e01004E
00000000000c67c0 t _ZN4core3ptr100drop_in_place$LT$mmtk..plan..generational..copying..global..GenCopy$LT$mmtk_openjdk..OpenJDK$GT$$GT$17hb19ce69829e01004E.3465
00000000000cf840 t _ZN4core3ptr100drop_in_place$LT$mmtk..plan..markcompact..gc_work..UpdateReferences$LT$mmtk_openjdk..OpenJDK$GT$$GT$17h3764842f06e75881E
0000000000087710 t _ZN4core3ptr100drop_in_place$LT$mmtk..vm..active_plan..SynchronizedMutatorIterator$LT$mmtk_openjdk..OpenJDK$GT$$GT$17h2af2111a1b0c71d1E
000000000011cf00 t _ZN4core3ptr101drop_in_place$LT$core..cell..RefCell$LT$alloc..vec..Vec$LT$regex_syntax..ast..CaptureName$GT$$GT$$GT$17h319e35b9bd65c6b1E
0000000000078940 t _ZN4core3ptr103drop_in_place$LT$std..sync..poison..PoisonError$LT$std..sync..mutex..MutexGuard$LT$$LP$$RP$$GT$$GT$$GT$17h5f8bc8a73b8505edE
000000000011ce30 t _ZN4core3ptr107drop_in_place$LT$core..cell..RefCell$LT$alloc..vec..Vec$LT$regex_syntax..ast..parse..ClassState$GT$$GT$$GT$17hfbc7aa47a18046adE
000000000002c920 t _ZN4core3ptr107drop_in_place$LT$mmtk..plan..generational..gc_work..GenNurseryProcessEdges$LT$mmtk_openjdk..OpenJDK$GT$$GT$17he7653b845265b6c6E
000000000007e5b0 t _ZN4core3ptr107drop_in_place$LT$mmtk..plan..generational..gc_work..GenNurseryProcessEdges$LT$mmtk_openjdk..OpenJDK$GT$$GT$17he7653b845265b6c6E.2097
00000000000dfc10 t _ZN4core3ptr108drop_in_place$LT$alloc..boxed..Box$LT$mmtk..scheduler..worker..GCWorker$LT$mmtk_openjdk..OpenJDK$GT$$GT$$GT$17h8ce73201074fa1e1E
000000000015f460 t _ZN4core3ptr108drop_in_place$LT$alloc..collections..btree..map..BTreeMap$LT$u64$C$gimli..read..abbrev..Abbreviation$GT$$GT$17h5422caf388dc4cbaE
000000000006d940 t _ZN4core3ptr110drop_in_place$LT$core..result..Result$LT$mmtk..util..options..PerfEventOptions$C$alloc..string..String$GT$$GT$17h44f70b9e2f965dd5E
000000000002c970 t _ZN4core3ptr110drop_in_place$LT$mmtk..util..heap..freelistpageresource..FreeListPageResource$LT$mmtk_openjdk..OpenJDK$GT$$GT$17hbb3bf1a701f64947E
00000000000ab8d0 t _ZN4core3ptr110drop_in_place$LT$mmtk..util..heap..monotonepageresource..MonotonePageResource$LT$mmtk_openjdk..OpenJDK$GT$$GT$17h1f380411e8755d56E.2379
00000000000ae4d0 t _ZN4core3ptr112drop_in_place$LT$alloc..boxed..Box$LT$dyn$u20$mmtk..scheduler..work..GCWork$LT$mmtk_openjdk..OpenJDK$GT$$GT$$GT$17h0e426134d112ee55E.2423
000000000007db90 t _ZN4core3ptr112drop_in_place$LT$std..sync..mutex..MutexGuard$LT$mmtk..util..reference_processor..ReferenceProcessorSync$GT$$GT$17h1b576a42922bf7fdE
00000000000df840 t _ZN4core3ptr116drop_in_place$LT$alloc..boxed..Box$LT$mmtk..scheduler..controller..GCController$LT$mmtk_openjdk..OpenJDK$GT$$GT$$GT$17hcb6e9fd30f644174E
00000000000a1af0 t _ZN4core3ptr116drop_in_place$LT$std..sync..mutex..Mutex$LT$mmtk..util..heap..freelistpageresource..FreeListPageResourceSync$GT$$GT$17h488a9f901f01c37fE.2245
00000000000af940 t _ZN4core3ptr120drop_in_place$LT$mmtk..util..finalizable_processor..FinalizableProcessor$LT$mmtk..util..address..ObjectReference$GT$$GT$17h9c2141458da68c0cE
0000000000060880 t _ZN4core3ptr120drop_in_place$LT$std..io..Write..write_fmt..Adapter$LT$env_logger..fmt..DefaultFormat..write_args..IndentWrapper$GT$$GT$17h1315c4c7b33ede8bE
0000000000061120 t _ZN4core3ptr122drop_in_place$LT$alloc..boxed..Box$LT$std..sync..mutex..Mutex$LT$dyn$u20$std..io..Write$u2b$core..marker..Send$GT$$GT$$GT$17h48275b1bd263bde0E
0000000000167980 t _ZN4core3ptr123drop_in_place$LT$addr2line..ResUnit$LT$gimli..read..endian_slice..EndianSlice$LT$gimli..endianity..LittleEndian$GT$$GT$$GT$17h729c8c26296344feE
000000000015ef50 t _ZN4core3ptr124drop_in_place$LT$addr2line..ResDwarf$LT$gimli..read..endian_slice..EndianSlice$LT$gimli..endianity..LittleEndian$GT$$GT$$GT$17h5342dad7ec220035E
000000000006e150 t _ZN4core3ptr124drop_in_place$LT$std..sync..mutex..Mutex$LT$std..collections..hash..set..HashSet$LT$mmtk..util..address..Address$GT$$GT$$GT$17hf7288e4212414e06E
00000000000e22e0 t _ZN4core3ptr125drop_in_place$LT$atomic_refcell..AtomicRefCell$LT$mmtk..scheduler..stat..WorkerLocalStat$LT$mmtk_openjdk..OpenJDK$GT$$GT$$GT$17h90eb7c7875a48d0dE
00000000000c3380 t _ZN4core3ptr127drop_in_place$LT$mmtk..scheduler..scheduler..GCWorkScheduler$LT$mmtk_openjdk..OpenJDK$GT$..new..$u7b$$u7b$closure$u7d$$u7d$$GT$17h8630c91624a6bcedE
000000000002c9d0 t _ZN4core3ptr127drop_in_place$LT$std..sync..mpsc..Flavor$LT$mmtk..scheduler..scheduler..CoordinatorMessage$LT$mmtk_openjdk..OpenJDK$GT$$GT$$GT$17hd6e9e06b3dab5b5fE
00000000000c4850 t _ZN4core3ptr127drop_in_place$LT$std..sync..mpsc..Sender$LT$mmtk..scheduler..scheduler..CoordinatorMessage$LT$mmtk_openjdk..OpenJDK$GT$$GT$$GT$17h7dff5909514a0256E
00000000000dfa30 t _ZN4core3ptr127drop_in_place$LT$std..sync..mpsc..Sender$LT$mmtk..scheduler..scheduler..CoordinatorMessage$LT$mmtk_openjdk..OpenJDK$GT$$GT$$GT$17h7dff5909514a0256E.4071
0000000000060ec0 t _ZN4core3ptr128drop_in_place$LT$core..panic..unwind_safe..AssertUnwindSafe$LT$core..cell..RefCell$LT$regex..exec..ProgramCacheInner$GT$$GT$$GT$17h63bf2f93d2c2ef7cE
0000000000078170 t _ZN4core3ptr128drop_in_place$LT$core..panic..unwind_safe..AssertUnwindSafe$LT$core..cell..RefCell$LT$regex..exec..ProgramCacheInner$GT$$GT$$GT$17ha7e97974b625e466E
00000000001046a0 t _ZN4core3ptr128drop_in_place$LT$core..panic..unwind_safe..AssertUnwindSafe$LT$core..cell..RefCell$LT$regex..exec..ProgramCacheInner$GT$$GT$$GT$17hd8d5bae7355d9b2eE
000000000007adb0 t _ZN4core3ptr128drop_in_place$LT$std..sync..mutex..MutexGuard$LT$dyn$u20$mmtk..util..statistics..counter..Counter$u2b$core..marker..Send$GT$$GT$17hb92520038a7a78abE
000000000002ca40 t _ZN4core3ptr129drop_in_place$LT$std..sync..mpsc..Receiver$LT$mmtk..scheduler..scheduler..CoordinatorMessage$LT$mmtk_openjdk..OpenJDK$GT$$GT$$GT$17h82c5c56b2e11017cE
00000000000b7810 t _ZN4core3ptr129drop_in_place$LT$std..sync..mpsc..Receiver$LT$mmtk..scheduler..scheduler..CoordinatorMessage$LT$mmtk_openjdk..OpenJDK$GT$$GT$$GT$17h82c5c56b2e11017cE.2813
00000000000c4110 t _ZN4core3ptr129drop_in_place$LT$std..sync..mpsc..Receiver$LT$mmtk..scheduler..scheduler..CoordinatorMessage$LT$mmtk_openjdk..OpenJDK$GT$$GT$$GT$17h82c5c56b2e11017cE.3310
00000000000e7100 t _ZN4core3ptr130drop_in_place$LT$std..sync..mpsc..SendError$LT$mmtk..scheduler..scheduler..CoordinatorMessage$LT$mmtk_openjdk..OpenJDK$GT$$GT$$GT$17h152232a258caf2efE
00000000000ae530 t _ZN4core3ptr135drop_in_place$LT$alloc..vec..Vec$LT$alloc..boxed..Box$LT$dyn$u20$mmtk..scheduler..work..GCWork$LT$mmtk_openjdk..OpenJDK$GT$$GT$$GT$$GT$17ha07db9d243b39f37E
00000000000d3e30 t _ZN4core3ptr135drop_in_place$LT$alloc..vec..Vec$LT$alloc..boxed..Box$LT$dyn$u20$mmtk..scheduler..work..GCWork$LT$mmtk_openjdk..OpenJDK$GT$$GT$$GT$$GT$17ha07db9d243b39f37E.3680
00000000000c47f0 t _ZN4core3ptr135drop_in_place$LT$core..result..Result$LT$$LP$$RP$$C$mmtk..scheduler..scheduler..CoordinatorMessage$LT$mmtk_openjdk..OpenJDK$GT$$GT$$GT$17h729204e368b94de4E
00000000000e2200 t _ZN4core3ptr136drop_in_place$LT$alloc..vec..Vec$LT$alloc..sync..Arc$LT$mmtk..scheduler..worker..GCWorkerShared$LT$mmtk_openjdk..OpenJDK$GT$$GT$$GT$$GT$17h2b374cc3038f220aE
000000000006ece0 t _ZN4core3ptr136drop_in_place$LT$mmtk..util..statistics..counter..long_counter..LongCounter$LT$mmtk..util..statistics..counter..MonotoneNanoTime$GT$$GT$17h54cad043732b8f6cE
000000000007ad10 t _ZN4core3ptr136drop_in_place$LT$mmtk..util..statistics..counter..long_counter..LongCounter$LT$mmtk..util..statistics..counter..MonotoneNanoTime$GT$$GT$17h54cad043732b8f6cE.1662
00000000000b8e90 t _ZN4core3ptr136drop_in_place$LT$std..sync..mpsc..stream..Message$LT$mmtk..scheduler..scheduler..CoordinatorMessage$LT$mmtk_openjdk..OpenJDK$GT$$GT$$GT$17h6af4c23ff2f55d87E
00000000000c4080 t _ZN4core3ptr136drop_in_place$LT$std..sync..mpsc..stream..Message$LT$mmtk..scheduler..scheduler..CoordinatorMessage$LT$mmtk_openjdk..OpenJDK$GT$$GT$$GT$17h6af4c23ff2f55d87E.3309
000000000015f360 t _ZN4core3ptr137drop_in_place$LT$gimli..read..dwarf..Unit$LT$gimli..read..endian_slice..EndianSlice$LT$gimli..endianity..LittleEndian$GT$$C$usize$GT$$GT$17h485ec1a3e5603265E
0000000000061220 t _ZN4core3ptr140drop_in_place$LT$std..sync..poison..PoisonError$LT$std..sync..mutex..MutexGuard$LT$dyn$u20$std..io..Write$u2b$core..marker..Send$GT$$GT$$GT$17hbd3e89006e9435b7E
000000000015f0e0 t _ZN4core3ptr146drop_in_place$LT$alloc..vec..Vec$LT$addr2line..ResUnit$LT$gimli..read..endian_slice..EndianSlice$LT$gimli..endianity..LittleEndian$GT$$GT$$GT$$GT$17h5e40edf217a7a977E
00000000000eb530 t _ZN4core3ptr147drop_in_place$LT$alloc..vec..Vec$LT$core..option..Option$LT$mmtk..scheduler..scheduler..CoordinatorMessage$LT$mmtk_openjdk..OpenJDK$GT$$GT$$GT$$GT$17h6dd1495c1e5420afE
000000000015f320 t _ZN4core3ptr149drop_in_place$LT$alloc..boxed..Box$LT$addr2line..ResDwarf$LT$gimli..read..endian_slice..EndianSlice$LT$gimli..endianity..LittleEndian$GT$$GT$$GT$$GT$17h315c312c509be525E
00000000000bafd0 t _ZN4core3ptr149drop_in_place$LT$crossbeam_deque..deque..Steal$LT$alloc..boxed..Box$LT$dyn$u20$mmtk..scheduler..work..GCWork$LT$mmtk_openjdk..OpenJDK$GT$$GT$$GT$$GT$17hb9123c3f0fd215c1E
00000000000ebbc0 t _ZN4core3ptr151drop_in_place$LT$std..sync..mutex..Mutex$LT$mmtk..util..finalizable_processor..FinalizableProcessor$LT$mmtk..util..address..ObjectReference$GT$$GT$$GT$17ha3285a4c86812400E.4207
000000000007b2e0 t _ZN4core3ptr153drop_in_place$LT$alloc..boxed..Box$LT$core..panic..unwind_safe..AssertUnwindSafe$LT$core..cell..RefCell$LT$regex..exec..ProgramCacheInner$GT$$GT$$GT$$GT$17h3ccdce9f8475d90fE
0000000000064be0 t _ZN4core3ptr153drop_in_place$LT$alloc..boxed..Box$LT$core..panic..unwind_safe..AssertUnwindSafe$LT$core..cell..RefCell$LT$regex..exec..ProgramCacheInner$GT$$GT$$GT$$GT$17h43c04c09b4384410E
0000000000104a30 t _ZN4core3ptr153drop_in_place$LT$alloc..boxed..Box$LT$core..panic..unwind_safe..AssertUnwindSafe$LT$core..cell..RefCell$LT$regex..exec..ProgramCacheInner$GT$$GT$$GT$$GT$17hc8e3815c0d181a36E.5454
0000000000109dc0 t _ZN4core3ptr153drop_in_place$LT$alloc..boxed..Box$LT$core..panic..unwind_safe..AssertUnwindSafe$LT$core..cell..RefCell$LT$regex..exec..ProgramCacheInner$GT$$GT$$GT$$GT$17hc8e3815c0d181a36E.5934
000000000015e250 t _ZN4core3ptr153drop_in_place$LT$gimli..read..line..IncompleteLineProgram$LT$gimli..read..endian_slice..EndianSlice$LT$gimli..endianity..LittleEndian$GT$$C$usize$GT$$GT$17he3e7d76639fc5f4fE
000000000002cae0 t _ZN4core3ptr154drop_in_place$LT$core..cell..UnsafeCell$LT$core..option..Option$LT$mmtk..scheduler..scheduler..CoordinatorMessage$LT$mmtk_openjdk..OpenJDK$GT$$GT$$GT$$GT$17h18a51711a4066cb2E
00000000000c2190 t _ZN4core3ptr154drop_in_place$LT$mmtk..scheduler..gc_work..ProcessModBuf$LT$mmtk..plan..generational..gc_work..GenNurseryProcessEdges$LT$mmtk_openjdk..OpenJDK$GT$$GT$$GT$17h8b6c6efb964cec6aE
00000000000b78b0 t _ZN4core3ptr157drop_in_place$LT$core..cell..UnsafeCell$LT$std..sync..mpsc..Flavor$LT$mmtk..scheduler..scheduler..CoordinatorMessage$LT$mmtk_openjdk..OpenJDK$GT$$GT$$GT$$GT$17h7d0d976c9d282a72E
00000000000eb0c0 t _ZN4core3ptr157drop_in_place$LT$core..result..Result$LT$mmtk..scheduler..scheduler..CoordinatorMessage$LT$mmtk_openjdk..OpenJDK$GT$$C$std..sync..mpsc..sync..Failure$GT$$GT$17h1c10c4b49a8fd3efE
00000000000c1c10 t _ZN4core3ptr161drop_in_place$LT$mmtk..plan..barriers..ObjectRememberingBarrier$LT$mmtk..plan..generational..gc_work..GenNurseryProcessEdges$LT$mmtk_openjdk..OpenJDK$GT$$GT$$GT$17hb5cbb7e0170dd460E
00000000000e2360 t _ZN4core3ptr163drop_in_place$LT$enum_map..EnumMap$LT$mmtk..scheduler..work_bucket..WorkBucketStage$C$mmtk..scheduler..work_bucket..WorkBucket$LT$mmtk_openjdk..OpenJDK$GT$$GT$$GT$17hc196399ad3090368E
000000000002cb40 t _ZN4core3ptr163drop_in_place$LT$std..sync..mutex..Mutex$LT$std..sync..mpsc..sync..State$LT$mmtk..scheduler..scheduler..CoordinatorMessage$LT$mmtk_openjdk..OpenJDK$GT$$GT$$GT$$GT$17hf441ccc2a3540480E
00000000000b8830 t _ZN4core3ptr164drop_in_place$LT$core..option..Option$LT$std..sync..mpsc..stream..Message$LT$mmtk..scheduler..scheduler..CoordinatorMessage$LT$mmtk_openjdk..OpenJDK$GT$$GT$$GT$$GT$17hdd959bc3ee9cbdc4E
00000000000c43a0 t _ZN4core3ptr164drop_in_place$LT$core..option..Option$LT$std..sync..mpsc..stream..Message$LT$mmtk..scheduler..scheduler..CoordinatorMessage$LT$mmtk_openjdk..OpenJDK$GT$$GT$$GT$$GT$17hdd959bc3ee9cbdc4E.3314
0000000000131210 t _ZN4core3ptr169drop_in_place$LT$$LT$alloc..vec..drain..Drain$LT$T$C$A$GT$$u20$as$u20$core..ops..drop..Drop$GT$..drop..DropGuard$LT$regex_syntax..ast..Ast$C$alloc..alloc..Global$GT$$GT$17h37a29da40ccb540cE
0000000000130c20 t _ZN4core3ptr169drop_in_place$LT$$LT$alloc..vec..drain..Drain$LT$T$C$A$GT$$u20$as$u20$core..ops..drop..Drop$GT$..drop..DropGuard$LT$regex_syntax..hir..Hir$C$alloc..alloc..Global$GT$$GT$17h337982b03c11596cE
000000000006eb90 t _ZN4core3ptr170drop_in_place$LT$alloc..vec..Vec$LT$alloc..sync..Arc$LT$std..sync..mutex..Mutex$LT$dyn$u20$mmtk..util..statistics..counter..Counter$u2b$core..marker..Send$GT$$GT$$GT$$GT$17h7e9b8b791ee784cdE
000000000006bac0 t _ZN4core3ptr173drop_in_place$LT$$LP$mmtk..util..metadata..side_metadata..global..SideMetadataSpec$C$std..collections..hash..map..HashMap$LT$mmtk..util..address..Address$C$usize$GT$$RP$$GT$17he8d101ae06046996E
00000000000af850 t _ZN4core3ptr173drop_in_place$LT$alloc..vec..Vec$LT$crossbeam_deque..deque..Worker$LT$alloc..boxed..Box$LT$dyn$u20$mmtk..scheduler..work..GCWork$LT$mmtk_openjdk..OpenJDK$GT$$GT$$GT$$GT$$GT$17hd493e486eed1b4c8E
00000000000af990 t _ZN4core3ptr174drop_in_place$LT$core..option..Option$LT$alloc..boxed..Box$LT$dyn$u20$core..ops..function..Fn$LT$$LP$$RP$$GT$$u2b$Output$u20$$u3d$$u20$bool$u2b$core..marker..Send$GT$$GT$$GT$17h0201816e9e50fb15E
0000000000111960 t _ZN4core3ptr176drop_in_place$LT$alloc..vec..Vec$LT$alloc..boxed..Box$LT$core..panic..unwind_safe..AssertUnwindSafe$LT$core..cell..RefCell$LT$regex..exec..ProgramCacheInner$GT$$GT$$GT$$GT$$GT$17h094c4cb8762892e9E
00000000001307b0 t _ZN4core3ptr178drop_in_place$LT$$LT$alloc..vec..drain..Drain$LT$T$C$A$GT$$u20$as$u20$core..ops..drop..Drop$GT$..drop..DropGuard$LT$regex_syntax..ast..ClassSetItem$C$alloc..alloc..Global$GT$$GT$17h680d804990eba336E
0000000000077ee0 t _ZN4core3ptr178drop_in_place$LT$alloc..boxed..Box$LT$regex..pool..Pool$LT$core..panic..unwind_safe..AssertUnwindSafe$LT$core..cell..RefCell$LT$regex..exec..ProgramCacheInner$GT$$GT$$GT$$GT$$GT$17h0f52aa083faa1b3fE
0000000000060d80 t _ZN4core3ptr178drop_in_place$LT$alloc..boxed..Box$LT$regex..pool..Pool$LT$core..panic..unwind_safe..AssertUnwindSafe$LT$core..cell..RefCell$LT$regex..exec..ProgramCacheInner$GT$$GT$$GT$$GT$$GT$17ha7cd6bc7f2023776E
0000000000159f80 t _ZN4core3ptr184drop_in_place$LT$core..result..Result$LT$addr2line..function..Functions$LT$gimli..read..endian_slice..EndianSlice$LT$gimli..endianity..LittleEndian$GT$$GT$$C$gimli..read..Error$GT$$GT$17h95ec0538a3868f56E
00000000000793b0 t _ZN4core3ptr186drop_in_place$LT$alloc..vec..Vec$LT$core..option..Option$LT$alloc..boxed..Box$LT$$u5b$atomic..Atomic$LT$mmtk..util..heap..layout..mmapper..MapState$GT$$u3b$$u20$2048$u5d$$GT$$GT$$GT$$GT$17h14b3f48d36e57da9E
000000000009a870 t _ZN4core3ptr201drop_in_place$LT$std..sync..mutex..Mutex$LT$alloc..vec..Vec$LT$alloc..sync..Arc$LT$std..sync..mutex..Mutex$LT$dyn$u20$mmtk..util..statistics..counter..Counter$u2b$core..marker..Send$GT$$GT$$GT$$GT$$GT$17h48593f3de1571b6aE
00000000000b9bf0 t _ZN4core3ptr201drop_in_place$LT$std..sync..mutex..Mutex$LT$alloc..vec..Vec$LT$alloc..sync..Arc$LT$std..sync..mutex..Mutex$LT$dyn$u20$mmtk..util..statistics..counter..Counter$u2b$core..marker..Send$GT$$GT$$GT$$GT$$GT$17h48593f3de1571b6aE.2868
00000000000c4430 t _ZN4core3ptr202drop_in_place$LT$alloc..boxed..Box$LT$std..sync..mpsc..spsc_queue..Node$LT$std..sync..mpsc..stream..Message$LT$mmtk..scheduler..scheduler..CoordinatorMessage$LT$mmtk_openjdk..OpenJDK$GT$$GT$$GT$$GT$$GT$17h2120d844cba72116E
000000000002cbe0 t _ZN4core3ptr204drop_in_place$LT$std..sync..mutex..Mutex$LT$alloc..vec..Vec$LT$crossbeam_deque..deque..Worker$LT$alloc..boxed..Box$LT$dyn$u20$mmtk..scheduler..work..GCWork$LT$mmtk_openjdk..OpenJDK$GT$$GT$$GT$$GT$$GT$$GT$17hdb6adc482e682d7bE
000000000002ccf0 t _ZN4core3ptr205drop_in_place$LT$std..sync..mutex..Mutex$LT$core..option..Option$LT$alloc..boxed..Box$LT$dyn$u20$core..ops..function..Fn$LT$$LP$$RP$$GT$$u2b$Output$u20$$u3d$$u20$bool$u2b$core..marker..Send$GT$$GT$$GT$$GT$17hbe659d5b653d7b5eE
0000000000169fe0 t _ZN4core3ptr226drop_in_place$LT$std..error..$LT$impl$u20$core..convert..From$LT$alloc..string..String$GT$$u20$for$u20$alloc..boxed..Box$LT$dyn$u20$std..error..Error$u2b$core..marker..Sync$u2b$core..marker..Send$GT$$GT$..from..StringError$GT$17h6135806b525a8d67E
000000000007c790 t _ZN4core3ptr226drop_in_place$LT$std..error..$LT$impl$u20$core..convert..From$LT$alloc..string..String$GT$$u20$for$u20$alloc..boxed..Box$LT$dyn$u20$std..error..Error$u2b$core..marker..Sync$u2b$core..marker..Send$GT$$GT$..from..StringError$GT$17h90e13d79b11655e6E
0000000000074aa0 t _ZN4core3ptr290drop_in_place$LT$std..sync..poison..PoisonError$LT$std..sync..rwlock..RwLockWriteGuard$LT$std..collections..hash..map..HashMap$LT$mmtk..util..metadata..side_metadata..global..SideMetadataSpec$C$std..collections..hash..map..HashMap$LT$mmtk..util..address..Address$C$usize$GT$$GT$$GT$$GT$$GT$17h588727fd98301eeeE
0000000000074af0 t _ZN4core3ptr36drop_in_place$LT$env_logger..Env$GT$17hbf0430e763cc41b6E
00000000001047c0 t _ZN4core3ptr38drop_in_place$LT$regex..dfa..Cache$GT$17h1657a4b29cce81e3E.5443
0000000000060fe0 t _ZN4core3ptr38drop_in_place$LT$regex..dfa..Cache$GT$17h4a3628c7f0cb5ba0E
0000000000078290 t _ZN4core3ptr38drop_in_place$LT$regex..dfa..Cache$GT$17hb578e7dfe13cd677E
0000000000061f00 t _ZN4core3ptr39drop_in_place$LT$env_logger..Logger$GT$17h986f6bc0caf95183E
0000000000077d00 t _ZN4core3ptr40drop_in_place$LT$env_logger..Builder$GT$17h59c9764711e252baE
00000000000f9b10 t _ZN4core3ptr41drop_in_place$LT$regex..compile..Hole$GT$17ha7b6e4cfa6e69634E
000000000007bb30 t _ZN4core3ptr41drop_in_place$LT$regex..prog..Program$GT$17h136a4c1a50677121E
00000000000f7930 t _ZN4core3ptr41drop_in_place$LT$regex..prog..Program$GT$17h22e3792a311bc535E
0000000000111360 t _ZN4core3ptr41drop_in_place$LT$regex..prog..Program$GT$17h22e3792a311bc535E.6185
000000000011bf00 t _ZN4core3ptr41drop_in_place$LT$regex..prog..Program$GT$17h22e3792a311bc535E.6321
000000000005e9a0 t _ZN4core3ptr41drop_in_place$LT$regex..prog..Program$GT$17hb12be47a7ae812acE
00000000000fd170 t _ZN4core3ptr42drop_in_place$LT$regex..compile..Patch$GT$17h036e6e51a2fa391eE
0000000000060800 t _ZN4core3ptr42drop_in_place$LT$std..io..error..Error$GT$17h024fcb506f6b4884E.991
000000000014cc80 t _ZN4core3ptr42drop_in_place$LT$std..io..error..Error$GT$17hbda01254288c0a77E
00000000000725f0 t _ZN4core3ptr42drop_in_place$LT$std..io..error..Error$GT$17hfbcf0fe7f442e6d0E.1515
000000000010d270 t _ZN4core3ptr43drop_in_place$LT$regex..dfa..CacheInner$GT$17hf6b8f72749c32aedE
000000000010c4c0 t _ZN4core3ptr43drop_in_place$LT$regex..pikevm..Threads$GT$17h3209059e8b11af3eE.5990
000000000011fe40 t _ZN4core3ptr43drop_in_place$LT$regex_syntax..ast..Ast$GT$17hc5b01a83b2d35c0cE
000000000012cd20 t _ZN4core3ptr43drop_in_place$LT$regex_syntax..ast..Ast$GT$17hc5b01a83b2d35c0cE.6454
000000000012d500 t _ZN4core3ptr43drop_in_place$LT$regex_syntax..ast..Ast$GT$17hc5b01a83b2d35c0cE.6523
0000000000131270 t _ZN4core3ptr43drop_in_place$LT$regex_syntax..ast..Ast$GT$17hc5b01a83b2d35c0cE.6579
0000000000140370 t _ZN4core3ptr43drop_in_place$LT$regex_syntax..ast..Ast$GT$17hc5b01a83b2d35c0cE.6999
00000000001097f0 t _ZN4core3ptr43drop_in_place$LT$regex_syntax..ast..Ast$GT$17hd6dbf9f09549b80dE
0000000000130c80 t _ZN4core3ptr43drop_in_place$LT$regex_syntax..hir..Hir$GT$17h794c8f6b06ad66ccE
0000000000134870 t _ZN4core3ptr43drop_in_place$LT$regex_syntax..hir..Hir$GT$17h794c8f6b06ad66ccE.6748
00000000001379c0 t _ZN4core3ptr43drop_in_place$LT$regex_syntax..hir..Hir$GT$17h794c8f6b06ad66ccE.6911
000000000013f6b0 t _ZN4core3ptr43drop_in_place$LT$regex_syntax..hir..Hir$GT$17h794c8f6b06ad66ccE.6966
00000000000fe990 t _ZN4core3ptr43drop_in_place$LT$regex_syntax..hir..Hir$GT$17h83781e03d7097675E
0000000000108e50 t _ZN4core3ptr43drop_in_place$LT$regex_syntax..hir..Hir$GT$17h83781e03d7097675E.5893
000000000011bb80 t _ZN4core3ptr43drop_in_place$LT$regex_syntax..hir..Hir$GT$17h83781e03d7097675E.6318
00000000000af750 t _ZN4core3ptr44drop_in_place$LT$mmtk..mmtk..MMTKBuilder$GT$17h9bcfb100c2006f27E
0000000000078110 t _ZN4core3ptr45drop_in_place$LT$env_logger..fmt..Builder$GT$17h924fc50857336327E
00000000000f9b80 t _ZN4core3ptr45drop_in_place$LT$regex..compile..Compiler$GT$17hc33a1e1460f7cb7eE
000000000010d350 t _ZN4core3ptr45drop_in_place$LT$regex..sparse..SparseSet$GT$17h7308958c01f25c0eE.6011
0000000000109c30 t _ZN4core3ptr45drop_in_place$LT$regex_syntax..ast..Class$GT$17h3e160bd52fcd8207E
000000000012ba10 t _ZN4core3ptr45drop_in_place$LT$regex_syntax..ast..Class$GT$17h8b4375773346b072E
000000000012d050 t _ZN4core3ptr45drop_in_place$LT$regex_syntax..ast..Class$GT$17h8b4375773346b072E.6456
000000000012d830 t _ZN4core3ptr45drop_in_place$LT$regex_syntax..ast..Class$GT$17h8b4375773346b072E.6526
00000000001315a0 t _ZN4core3ptr45drop_in_place$LT$regex_syntax..ast..Class$GT$17h8b4375773346b072E.6582
0000000000140790 t _ZN4core3ptr45drop_in_place$LT$regex_syntax..ast..Class$GT$17h8b4375773346b072E.7003
0000000000127860 t _ZN4core3ptr45drop_in_place$LT$regex_syntax..ast..Group$GT$17h20defcc06e9c0637E
000000000012d150 t _ZN4core3ptr45drop_in_place$LT$regex_syntax..ast..Group$GT$17h20defcc06e9c0637E.6458
000000000012d930 t _ZN4core3ptr45drop_in_place$LT$regex_syntax..ast..Group$GT$17h20defcc06e9c0637E.6528
00000000001316a0 t _ZN4core3ptr45drop_in_place$LT$regex_syntax..ast..Group$GT$17h20defcc06e9c0637E.6584
0000000000140600 t _ZN4core3ptr45drop_in_place$LT$regex_syntax..ast..Group$GT$17h20defcc06e9c0637E.7000
0000000000109aa0 t _ZN4core3ptr45drop_in_place$LT$regex_syntax..ast..Group$GT$17hccd890514c370ec1E
00000000000fa850 t _ZN4core3ptr46drop_in_place$LT$regex..compile..MaybeInst$GT$17h2158d3ed38d5e9b9E
0000000000109b60 t _ZN4core3ptr46drop_in_place$LT$regex_syntax..ast..Concat$GT$17h137c061fdae5e29dE
0000000000123c90 t _ZN4core3ptr46drop_in_place$LT$regex_syntax..ast..Concat$GT$17h55d1be8762349bbcE
00000000000de030 t _ZN4core3ptr46drop_in_place$LT$std..ffi..c_str..NulError$GT$17hc95d66bafa571029E
0000000000061e40 t _ZN4core3ptr47drop_in_place$LT$env_logger..filter..Filter$GT$17h6fd9598705fd95b8E
0000000000132170 t _ZN4core3ptr47drop_in_place$LT$regex_syntax..error..Spans$GT$17hacc98cde6576f23bE
00000000000feb40 t _ZN4core3ptr47drop_in_place$LT$regex_syntax..hir..HirKind$GT$17h07f9d878c23738a8E
0000000000109010 t _ZN4core3ptr47drop_in_place$LT$regex_syntax..hir..HirKind$GT$17h07f9d878c23738a8E.5895
000000000011cc90 t _ZN4core3ptr47drop_in_place$LT$regex_syntax..hir..HirKind$GT$17h07f9d878c23738a8E.6348
0000000000130ea0 t _ZN4core3ptr47drop_in_place$LT$regex_syntax..hir..HirKind$GT$17hdd2bf360499ea789E
0000000000134540 t _ZN4core3ptr47drop_in_place$LT$regex_syntax..hir..HirKind$GT$17hdd2bf360499ea789E.6746
0000000000137be0 t _ZN4core3ptr47drop_in_place$LT$regex_syntax..hir..HirKind$GT$17hdd2bf360499ea789E.6913
000000000013f4a0 t _ZN4core3ptr47drop_in_place$LT$regex_syntax..hir..HirKind$GT$17hdd2bf360499ea789E.6965
00000000000f7ac0 t _ZN4core3ptr48drop_in_place$LT$regex..compile..SuffixCache$GT$17h4bfe1802f9d5989aE
0000000000109490 t _ZN4core3ptr48drop_in_place$LT$regex_syntax..ast..ClassSet$GT$17hc1956e98195d19ceE
0000000000126b20 t _ZN4core3ptr48drop_in_place$LT$regex_syntax..ast..ClassSet$GT$17heb342536b503e63fE
000000000012c670 t _ZN4core3ptr48drop_in_place$LT$regex_syntax..ast..ClassSet$GT$17heb342536b503e63fE.6438
000000000012dba0 t _ZN4core3ptr48drop_in_place$LT$regex_syntax..ast..ClassSet$GT$17heb342536b503e63fE.6533
0000000000130a00 t _ZN4core3ptr48drop_in_place$LT$regex_syntax..ast..ClassSet$GT$17heb342536b503e63fE.6577
0000000000140a40 t _ZN4core3ptr48drop_in_place$LT$regex_syntax..ast..ClassSet$GT$17heb342536b503e63fE.7006
000000000007bcc0 t _ZN4core3ptr49drop_in_place$LT$regex..literal..imp..Matcher$GT$17h1b148503f70e918dE
00000000000f7c00 t _ZN4core3ptr49drop_in_place$LT$regex..literal..imp..Matcher$GT$17h28b7f11971fb72d3E
000000000010a3c0 t _ZN4core3ptr49drop_in_place$LT$regex..literal..imp..Matcher$GT$17h28b7f11971fb72d3E.5970
00000000001114f0 t _ZN4core3ptr49drop_in_place$LT$regex..literal..imp..Matcher$GT$17h28b7f11971fb72d3E.6186
000000000011c300 t _ZN4core3ptr49drop_in_place$LT$regex..literal..imp..Matcher$GT$17h28b7f11971fb72d3E.6325
0000000000127920 t _ZN4core3ptr49drop_in_place$LT$regex_syntax..ast..GroupKind$GT$17hc99574468e913e25E
000000000011b870 t _ZN4core3ptr49drop_in_place$LT$regex_syntax..parser..Parser$GT$17h86bd7d7e4904c78eE
00000000000ba520 t _ZN4core3ptr50drop_in_place$LT$crossbeam_epoch..guard..Guard$GT$17he6c5f07a9f206e47E
00000000000eae20 t _ZN4core3ptr51drop_in_place$LT$std..sync..mpsc..sync..Blocker$GT$17ha0e857f6806f6703E
000000000004aac0 t _ZN4core3ptr52drop_in_place$LT$aho_corasick..prefilter..Packed$GT$17h978f271d539cb416E
00000000000618d0 t _ZN4core3ptr52drop_in_place$LT$env_logger..fmt..writer..Writer$GT$17h452bb802caa9a1e8E
0000000000109310 t _ZN4core3ptr52drop_in_place$LT$regex_syntax..ast..ClassSetItem$GT$17h64fb0fa0dd85fc1dE
0000000000126930 t _ZN4core3ptr52drop_in_place$LT$regex_syntax..ast..ClassSetItem$GT$17h8b0131a53ff997dcE
000000000012bf30 t _ZN4core3ptr52drop_in_place$LT$regex_syntax..ast..ClassSetItem$GT$17h8b0131a53ff997dcE.6434
000000000012d9b0 t _ZN4core3ptr52drop_in_place$LT$regex_syntax..ast..ClassSetItem$GT$17h8b0131a53ff997dcE.6530
0000000000130810 t _ZN4core3ptr52drop_in_place$LT$regex_syntax..ast..ClassSetItem$GT$17h8b0131a53ff997dcE.6574
0000000000140850 t _ZN4core3ptr52drop_in_place$LT$regex_syntax..ast..ClassSetItem$GT$17h8b0131a53ff997dcE.7004
0000000000078020 t _ZN4core3ptr53drop_in_place$LT$env_logger..fmt..writer..Builder$GT$17h8b77f7ed622d00b9E
000000000002cd60 t _ZN4core3ptr53drop_in_place$LT$mmtk..util..treadmill..TreadMill$GT$17hf96d2289ae984b1cE
0000000000126030 t _ZN4core3ptr53drop_in_place$LT$regex_syntax..ast..ClassSetUnion$GT$17haf8d5e0c0eeeff85E
0000000000106fe0 t _ZN4core3ptr54drop_in_place$LT$aho_corasick..nfa..NFA$LT$u32$GT$$GT$17hdc60914a48e1a139E
0000000000066030 t _ZN4core3ptr54drop_in_place$LT$gimli..read..abbrev..Abbreviation$GT$17h4978851d71bd1f46E
00000000001268d0 t _ZN4core3ptr54drop_in_place$LT$regex_syntax..ast..ClassBracketed$GT$17h40f5b430bc79738eE
0000000000140c80 t _ZN4core3ptr54drop_in_place$LT$regex_syntax..ast..ClassBracketed$GT$17h40f5b430bc79738eE.7012
00000000001095b0 t _ZN4core3ptr54drop_in_place$LT$regex_syntax..ast..ClassBracketed$GT$17h7b2671cad26c35d9E
0000000000103660 t _ZN4core3ptr55drop_in_place$LT$aho_corasick..dfa..Repr$LT$u32$GT$$GT$17hd88d91e986a51130E
000000000010c3b0 t _ZN4core3ptr55drop_in_place$LT$aho_corasick..packed..api..Builder$GT$17h703aa3ab4bbe7ffaE
000000000010c370 t _ZN4core3ptr55drop_in_place$LT$regex..literal..imp..SingleByteSet$GT$17h47e7c31073fcb543E
00000000001071c0 t _ZN4core3ptr56drop_in_place$LT$aho_corasick..nfa..State$LT$u32$GT$$GT$17h4c946fa8bc3b6180E
000000000011c5d0 t _ZN4core3ptr56drop_in_place$LT$aho_corasick..packed..api..Searcher$GT$17h33d4922e92f873c7E.6328
0000000000109540 t _ZN4core3ptr56drop_in_place$LT$regex_syntax..ast..ClassSetBinaryOp$GT$17h17e9d5e3ce889977E
0000000000126ab0 t _ZN4core3ptr56drop_in_place$LT$regex_syntax..ast..ClassSetBinaryOp$GT$17hb5aab0a7c1446627E
000000000012c600 t _ZN4core3ptr56drop_in_place$LT$regex_syntax..ast..ClassSetBinaryOp$GT$17hb5aab0a7c1446627E.6437
000000000012db30 t _ZN4core3ptr56drop_in_place$LT$regex_syntax..ast..ClassSetBinaryOp$GT$17hb5aab0a7c1446627E.6531
0000000000130990 t _ZN4core3ptr56drop_in_place$LT$regex_syntax..ast..ClassSetBinaryOp$GT$17hb5aab0a7c1446627E.6576
00000000001409d0 t _ZN4core3ptr56drop_in_place$LT$regex_syntax..ast..ClassSetBinaryOp$GT$17hb5aab0a7c1446627E.7005
0000000000126d60 t _ZN4core3ptr56drop_in_place$LT$regex_syntax..ast..ClassUnicodeKind$GT$17h1a0369919398d5cbE
00000000000c6d60 t _ZN4core3ptr57drop_in_place$LT$mmtk..util..statistics..stats..Stats$GT$17hec970a9406f8002fE.3470
00000000000f7ba0 t _ZN4core3ptr57drop_in_place$LT$regex..literal..imp..LiteralSearcher$GT$17h6b73f2f16b5ad175E
000000000011c210 t _ZN4core3ptr57drop_in_place$LT$regex..literal..imp..LiteralSearcher$GT$17h6b73f2f16b5ad175E.6323
0000000000126780 t _ZN4core3ptr57drop_in_place$LT$regex_syntax..ast..parse..ClassState$GT$17h02b206c1ed5415a1E
0000000000140ce0 t _ZN4core3ptr57drop_in_place$LT$regex_syntax..ast..parse..ClassState$GT$17h02b206c1ed5415a1E.7019
00000000001091c0 t _ZN4core3ptr57drop_in_place$LT$regex_syntax..ast..parse..ClassState$GT$17h4e5eadb5adbb2e41E
0000000000127610 t _ZN4core3ptr57drop_in_place$LT$regex_syntax..ast..parse..GroupState$GT$17h6023f6bdca92c1edE
00000000001401d0 t _ZN4core3ptr57drop_in_place$LT$regex_syntax..ast..parse..GroupState$GT$17h6023f6bdca92c1edE.6998
0000000000109650 t _ZN4core3ptr57drop_in_place$LT$regex_syntax..ast..parse..GroupState$GT$17hf2ad2f6569947973E
000000000010a900 t _ZN4core3ptr57drop_in_place$LT$regex_syntax..hir..literal..Literals$GT$17h22ec4bbc74d925e7E
000000000006d9e0 t _ZN4core3ptr58drop_in_place$LT$mmtk..util..options..PerfEventOptions$GT$17hf225500af43e53a0E
00000000001059d0 t _ZN4core3ptr59drop_in_place$LT$aho_corasick..nfa..Compiler$LT$u32$GT$$GT$17he34abafb8d89b650E
0000000000137970 t _ZN4core3ptr59drop_in_place$LT$regex_syntax..hir..translate..HirFrame$GT$17h3949ad7ab50721cdE
000000000011c490 t _ZN4core3ptr60drop_in_place$LT$aho_corasick..packed..pattern..Patterns$GT$17h0fe3752a3bdbb93fE
00000000000616e0 t _ZN4core3ptr60drop_in_place$LT$env_logger..fmt..writer..WritableTarget$GT$17h471e9d3e02204230E.1044
00000000000fa300 t _ZN4core3ptr61drop_in_place$LT$alloc..vec..Vec$LT$regex..prog..Inst$GT$$GT$17hb5a143a573fd862aE
0000000000107fe0 t _ZN4core3ptr61drop_in_place$LT$alloc..vec..Vec$LT$regex..prog..Inst$GT$$GT$17hb5a143a573fd862aE.5769
000000000011cf90 t _ZN4core3ptr61drop_in_place$LT$regex_syntax..hir..translate..Translator$GT$17hbe4ba0923d794630E
000000000011c780 t _ZN4core3ptr62drop_in_place$LT$aho_corasick..ahocorasick..Imp$LT$u32$GT$$GT$17hd8d81974e6fe9f78E
000000000011c540 t _ZN4core3ptr63drop_in_place$LT$aho_corasick..packed..rabinkarp..RabinKarp$GT$17h2d2ff17a0905e3eeE.6327
00000000000fa3c0 t _ZN4core3ptr64drop_in_place$LT$alloc..vec..Vec$LT$regex..compile..Hole$GT$$GT$17h106b4c36dd939304E
000000000011be70 t _ZN4core3ptr65drop_in_place$LT$alloc..vec..Vec$LT$alloc..string..String$GT$$GT$17h2f7c9a3cf8b883abE.6320
0000000000169400 t _ZN4core3ptr65drop_in_place$LT$std..backtrace_rs..symbolize..gimli..Library$GT$17h60c26f0d64a6cff4E
0000000000157cd0 t _ZN4core3ptr65drop_in_place$LT$std..backtrace_rs..symbolize..gimli..Mapping$GT$17h9f175420513fce82E
0000000000127790 t _ZN4core3ptr66drop_in_place$LT$alloc..vec..Vec$LT$regex_syntax..ast..Ast$GT$$GT$17h04990c69e4b51fd0E
00000000001406c0 t _ZN4core3ptr66drop_in_place$LT$alloc..vec..Vec$LT$regex_syntax..ast..Ast$GT$$GT$17h04990c69e4b51fd0E.7002
0000000000109cf0 t _ZN4core3ptr66drop_in_place$LT$alloc..vec..Vec$LT$regex_syntax..ast..Ast$GT$$GT$17ha4b2e86dcf66a2e8E
000000000011bd30 t _ZN4core3ptr66drop_in_place$LT$alloc..vec..Vec$LT$regex_syntax..hir..Hir$GT$$GT$17h36b6d4bdfa1c70d4E
0000000000134790 t _ZN4core3ptr66drop_in_place$LT$alloc..vec..Vec$LT$regex_syntax..hir..Hir$GT$$GT$17hdd8bec6284ead43aE
000000000013fdf0 t _ZN4core3ptr66drop_in_place$LT$alloc..vec..Vec$LT$regex_syntax..hir..Hir$GT$$GT$17hdd8bec6284ead43aE.6968
0000000000066060 t _ZN4core3ptr68drop_in_place$LT$$LP$u64$C$gimli..read..abbrev..Abbreviation$RP$$GT$17hbd2a115830db7989E
0000000000109b20 t _ZN4core3ptr68drop_in_place$LT$alloc..boxed..Box$LT$regex_syntax..ast..Ast$GT$$GT$17h51e5af27d00cfda3E
00000000001278e0 t _ZN4core3ptr68drop_in_place$LT$alloc..boxed..Box$LT$regex_syntax..ast..Ast$GT$$GT$17hd933247c0a5972abE
000000000012d110 t _ZN4core3ptr68drop_in_place$LT$alloc..boxed..Box$LT$regex_syntax..ast..Ast$GT$$GT$17hd933247c0a5972abE.6457
000000000012d8f0 t _ZN4core3ptr68drop_in_place$LT$alloc..boxed..Box$LT$regex_syntax..ast..Ast$GT$$GT$17hd933247c0a5972abE.6527
0000000000131660 t _ZN4core3ptr68drop_in_place$LT$alloc..boxed..Box$LT$regex_syntax..ast..Ast$GT$$GT$17hd933247c0a5972abE.6583
0000000000140680 t _ZN4core3ptr68drop_in_place$LT$alloc..boxed..Box$LT$regex_syntax..ast..Ast$GT$$GT$17hd933247c0a5972abE.7001
000000000011c270 t _ZN4core3ptr69drop_in_place$LT$alloc..vec..Vec$LT$alloc..vec..Vec$LT$u8$GT$$GT$$GT$17h4264d8f8f358b9e4E
00000000000f7860 t _ZN4core3ptr69drop_in_place$LT$alloc..vec..Vec$LT$regex..compile..MaybeInst$GT$$GT$17h73cb6d802c5a10f4E
000000000015f020 t _ZN4core3ptr69drop_in_place$LT$std..backtrace_rs..symbolize..gimli..elf..Object$GT$17h59ad7878c2aaa6acE
000000000005eb30 t _ZN4core3ptr70drop_in_place$LT$aho_corasick..ahocorasick..AhoCorasick$LT$u32$GT$$GT$17h5f81d315796aa93fE
0000000000111800 t _ZN4core3ptr70drop_in_place$LT$aho_corasick..ahocorasick..AhoCorasick$LT$u32$GT$$GT$17hb4840e42edb5a631E
000000000015f040 t _ZN4core3ptr70drop_in_place$LT$std..backtrace_rs..symbolize..gimli..stash..Stash$GT$17hb8de6a62cb629c38E
000000000016fb00 t _ZN4core3ptr70drop_in_place$LT$std..panicking..begin_panic_handler..PanicPayload$GT$17h29e1247f26adbf30E
000000000012c760 t _ZN4core3ptr71drop_in_place$LT$alloc..vec..Vec$LT$regex_syntax..ast..ClassSet$GT$$GT$17he4fcc954bc894f6dE
00000000000d34f0 t _ZN4core3ptr72drop_in_place$LT$mmtk..util..reference_processor..ReferenceProcessor$GT$17h0e0b5a24f0434de9E.3634
000000000007cc90 t _ZN4core3ptr72drop_in_place$LT$mmtk..util..reference_processor..ReferenceProcessor$GT$17haf5a24e419755d8bE
0000000000109610 t _ZN4core3ptr73drop_in_place$LT$alloc..boxed..Box$LT$regex_syntax..ast..ClassSet$GT$$GT$17h31adf30dd08261c1E
0000000000126d20 t _ZN4core3ptr73drop_in_place$LT$alloc..boxed..Box$LT$regex_syntax..ast..ClassSet$GT$$GT$17hcff7d033bf8ec352E
000000000012c720 t _ZN4core3ptr73drop_in_place$LT$alloc..boxed..Box$LT$regex_syntax..ast..ClassSet$GT$$GT$17hcff7d033bf8ec352E.6439
000000000012dda0 t _ZN4core3ptr73drop_in_place$LT$alloc..boxed..Box$LT$regex_syntax..ast..ClassSet$GT$$GT$17hcff7d033bf8ec352E.6534
0000000000130ab0 t _ZN4core3ptr73drop_in_place$LT$alloc..boxed..Box$LT$regex_syntax..ast..ClassSet$GT$$GT$17hcff7d033bf8ec352E.6578
0000000000140c40 t _ZN4core3ptr73drop_in_place$LT$alloc..boxed..Box$LT$regex_syntax..ast..ClassSet$GT$$GT$17hcff7d033bf8ec352E.7007
00000000000eba70 t _ZN4core3ptr73drop_in_place$LT$mmtk..util..reference_processor..ReferenceProcessors$GT$17h37402fcaa829cf61E.4205
000000000006ec80 t _ZN4core3ptr76drop_in_place$LT$mmtk..util..reference_processor..ReferenceProcessorSync$GT$17h082d55bd0d840a35E
00000000000a1a00 t _ZN4core3ptr78drop_in_place$LT$mmtk..plan..global..BasePlan$LT$mmtk_openjdk..OpenJDK$GT$$GT$17h04b2a7ff5f750c61E
00000000000b9b00 t _ZN4core3ptr78drop_in_place$LT$mmtk..plan..global..BasePlan$LT$mmtk_openjdk..OpenJDK$GT$$GT$17h04b2a7ff5f750c61E.2866
00000000000c6c70 t _ZN4core3ptr78drop_in_place$LT$mmtk..plan..global..BasePlan$LT$mmtk_openjdk..OpenJDK$GT$$GT$17h04b2a7ff5f750c61E.3468
00000000000f7100 t _ZN4core3ptr79drop_in_place$LT$alloc..boxed..Box$LT$panic_unwind..real_imp..Exception$GT$$GT$17h7e1bdd18fb12c7d7E
0000000000107100 t _ZN4core3ptr79drop_in_place$LT$alloc..vec..Vec$LT$aho_corasick..nfa..State$LT$u32$GT$$GT$$GT$17h1e61c6e451b7a2afE
000000000007bfd0 t _ZN4core3ptr79drop_in_place$LT$alloc..vec..Vec$LT$regex_syntax..hir..literal..Literal$GT$$GT$17h5af1228ef14334a7E
00000000000a18a0 t _ZN4core3ptr80drop_in_place$LT$mmtk..plan..global..CommonPlan$LT$mmtk_openjdk..OpenJDK$GT$$GT$17hd528cab310454b1bE
00000000000bdc20 t _ZN4core3ptr80drop_in_place$LT$mmtk..plan..global..CommonPlan$LT$mmtk_openjdk..OpenJDK$GT$$GT$17hd528cab310454b1bE.3035
00000000000c6db0 t _ZN4core3ptr80drop_in_place$LT$mmtk..plan..global..CommonPlan$LT$mmtk_openjdk..OpenJDK$GT$$GT$17hd528cab310454b1bE.3473
000000000009a710 t _ZN4core3ptr80drop_in_place$LT$mmtk..plan..nogc..global..NoGC$LT$mmtk_openjdk..OpenJDK$GT$$GT$17ha1f40461b93d2256E
00000000000c6a70 t _ZN4core3ptr80drop_in_place$LT$mmtk..plan..nogc..global..NoGC$LT$mmtk_openjdk..OpenJDK$GT$$GT$17ha1f40461b93d2256E.3466
000000000014cc00 t _ZN4core3ptr81drop_in_place$LT$core..result..Result$LT$$LP$$RP$$C$std..io..error..Error$GT$$GT$17h63b0db4263bdf2cbE
000000000002ceb0 t _ZN4core3ptr81drop_in_place$LT$core..result..Result$LT$$LP$$RP$$C$std..io..error..Error$GT$$GT$17h6da62137a1a3f1e0E
000000000005f540 t _ZN4core3ptr81drop_in_place$LT$env_logger..fmt..Builder..build..$u7b$$u7b$closure$u7d$$u7d$$GT$17h3a551f68b7d8015dE
000000000006eb40 t _ZN4core3ptr81drop_in_place$LT$mmtk..util..statistics..counter..event_counter..EventCounter$GT$17h995e74639aa1c082E
000000000007ad60 t _ZN4core3ptr81drop_in_place$LT$mmtk..util..statistics..counter..event_counter..EventCounter$GT$17h995e74639aa1c082E.1663
00000000000fa390 t _ZN4core3ptr82drop_in_place$LT$core..option..Option$LT$regex_syntax..utf8..Utf8Sequences$GT$$GT$17ha1b721392e2f3670E
00000000000c65e0 t _ZN4core3ptr82drop_in_place$LT$mmtk..plan..immix..global..Immix$LT$mmtk_openjdk..OpenJDK$GT$$GT$17h491031266d213e13E
000000000002cf30 t _ZN4core3ptr82drop_in_place$LT$mmtk..policy..space..CommonSpace$LT$mmtk_openjdk..OpenJDK$GT$$GT$17h5ef684b01236e8e4E
00000000000bdb00 t _ZN4core3ptr82drop_in_place$LT$mmtk..policy..space..CommonSpace$LT$mmtk_openjdk..OpenJDK$GT$$GT$17h5ef684b01236e8e4E.3031
00000000000df900 t _ZN4core3ptr83drop_in_place$LT$mmtk..scheduler..worker..GCWorker$LT$mmtk_openjdk..OpenJDK$GT$$GT$17h8679c96f7b63b072E
00000000000b73a0 t _ZN4core3ptr84drop_in_place$LT$mmtk..policy..copyspace..CopySpace$LT$mmtk_openjdk..OpenJDK$GT$$GT$17h8a906842a80a0bd7E
00000000000bdb70 t _ZN4core3ptr84drop_in_place$LT$mmtk..policy..copyspace..CopySpace$LT$mmtk_openjdk..OpenJDK$GT$$GT$17h8a906842a80a0bd7E.3033
000000000011bde0 t _ZN4core3ptr85drop_in_place$LT$core..option..Option$LT$regex_syntax..hir..literal..Literals$GT$$GT$17hf7118a143bab7fccE
00000000000b6e40 t _ZN4core3ptr85drop_in_place$LT$mmtk..util..metadata..side_metadata..global..SideMetadataContext$GT$17h7b24a6e5a8120841E
000000000011ca00 t _ZN4core3ptr85drop_in_place$LT$regex..exec..ExecReadOnly..new_pool..$u7b$$u7b$closure$u7d$$u7d$$GT$17haa55cf95e472a9a7E
0000000000040ec0 t _ZN4core3ptr86drop_in_place$LT$alloc..vec..Vec$LT$alloc..vec..Vec$LT$$LP$usize$C$u16$RP$$GT$$GT$$GT$17hadccb8a1d16b250aE
000000000004aa60 t _ZN4core3ptr86drop_in_place$LT$core..option..Option$LT$aho_corasick..prefilter..PrefilterObj$GT$$GT$17h6d1f067efb67c007E
000000000015e3b0 t _ZN4core3ptr86drop_in_place$LT$core..result..Result$LT$addr2line..Lines$C$gimli..read..Error$GT$$GT$17hdb5dad741b8c3cbfE
000000000004c150 t _ZN4core3ptr87drop_in_place$LT$alloc..vec..Vec$LT$$RF$aho_corasick..prefilter..RareByteOffset$GT$$GT$17he8d1e409c219c477E
00000000000bda00 t _ZN4core3ptr87drop_in_place$LT$mmtk..plan..generational..global..Gen$LT$mmtk_openjdk..OpenJDK$GT$$GT$17h5e06b7382f66c94bE.3030
00000000000c6f10 t _ZN4core3ptr87drop_in_place$LT$mmtk..plan..generational..global..Gen$LT$mmtk_openjdk..OpenJDK$GT$$GT$17h5e06b7382f66c94bE.3479
000000000014ccf0 t _ZN4core3ptr87drop_in_place$LT$std..io..Write..write_fmt..Adapter$LT$$RF$mut$u20$$u5b$u8$u5d$$GT$$GT$17hce78763a910b2726E
000000000016eb30 t _ZN4core3ptr88drop_in_place$LT$std..sys_common..backtrace.._print_fmt..$u7b$$u7b$closure$u7d$$u7d$$GT$17haef5f7549f475879E
00000000000ab930 t _ZN4core3ptr90drop_in_place$LT$mmtk..plan..marksweep..global..MarkSweep$LT$mmtk_openjdk..OpenJDK$GT$$GT$17hf3e63ed5ced89a9bE
00000000000c6700 t _ZN4core3ptr90drop_in_place$LT$mmtk..plan..marksweep..global..MarkSweep$LT$mmtk_openjdk..OpenJDK$GT$$GT$17hf3e63ed5ced89a9bE.3463
00000000000c6930 t _ZN4core3ptr90drop_in_place$LT$mmtk..plan..semispace..global..SemiSpace$LT$mmtk_openjdk..OpenJDK$GT$$GT$17h568d6ed9baf4ea4bE
000000000002cfa0 t _ZN4core3ptr90drop_in_place$LT$mmtk..scheduler..work_bucket..WorkBucket$LT$mmtk_openjdk..OpenJDK$GT$$GT$17h5864051eee0f2274E
000000000016c290 t _ZN4core3ptr90drop_in_place$LT$std..io..buffered..bufwriter..BufWriter$LT$W$GT$..flush_buf..BufGuard$GT$17h0ac23e959e72fe10E
00000000000df880 t _ZN4core3ptr91drop_in_place$LT$mmtk..scheduler..controller..GCController$LT$mmtk_openjdk..OpenJDK$GT$$GT$17h3784022e2f7029feE
000000000009a980 t _ZN4core3ptr92drop_in_place$LT$mmtk..policy..immortalspace..ImmortalSpace$LT$mmtk_openjdk..OpenJDK$GT$$GT$17h7e5b935cb576a95aE
00000000000a3fd0 t _ZN4core3ptr92drop_in_place$LT$mmtk..policy..immortalspace..ImmortalSpace$LT$mmtk_openjdk..OpenJDK$GT$$GT$17h7e5b935cb576a95aE.2268
00000000000bde60 t _ZN4core3ptr92drop_in_place$LT$mmtk..policy..immortalspace..ImmortalSpace$LT$mmtk_openjdk..OpenJDK$GT$$GT$17h7e5b935cb576a95aE.3047
000000000008c280 t _ZN4core3ptr92drop_in_place$LT$mmtk..scheduler..gc_work..ProcessEdgesBase$LT$mmtk_openjdk..OpenJDK$GT$$GT$17hd3936a6f0d460157E
00000000000c3330 t _ZN4core3ptr92drop_in_place$LT$mmtk..scheduler..gc_work..ProcessEdgesBase$LT$mmtk_openjdk..OpenJDK$GT$$GT$17hd3936a6f0d460157E.3188
00000000000f7b10 t _ZN4core3ptr93drop_in_place$LT$alloc..vec..Vec$LT$core..option..Option$LT$alloc..string..String$GT$$GT$$GT$17h9cb23b0981fdaf75E
00000000000afa90 t _ZN4core3ptr93drop_in_place$LT$mmtk..policy..immix..immixspace..ImmixSpace$LT$mmtk_openjdk..OpenJDK$GT$$GT$17h2222048513a34412E
00000000000b99d0 t _ZN4core3ptr93drop_in_place$LT$mmtk..policy..immix..immixspace..ImmixSpace$LT$mmtk_openjdk..OpenJDK$GT$$GT$17h2222048513a34412E.2854
00000000000c30b0 t _ZN4core3ptr93drop_in_place$LT$mmtk..policy..immix..immixspace..ImmixSpace$LT$mmtk_openjdk..OpenJDK$GT$$GT$17h2222048513a34412E.3185
00000000000c6530 t _ZN4core3ptr94drop_in_place$LT$mmtk..plan..markcompact..global..MarkCompact$LT$mmtk_openjdk..OpenJDK$GT$$GT$17hc4cd6346fb908d21E
00000000000a17b0 t _ZN4core3ptr94drop_in_place$LT$mmtk..plan..pageprotect..global..PageProtect$LT$mmtk_openjdk..OpenJDK$GT$$GT$17h7b1ad1b36561452cE
00000000000c6620 t _ZN4core3ptr94drop_in_place$LT$mmtk..plan..pageprotect..global..PageProtect$LT$mmtk_openjdk..OpenJDK$GT$$GT$17h7b1ad1b36561452cE.3462
000000000009aa40 t _ZN4core3ptr96drop_in_place$LT$mmtk..policy..mallocspace..global..MallocSpace$LT$mmtk_openjdk..OpenJDK$GT$$GT$17h4d1600e8b5647ffeE
00000000000c7010 t _ZN4core3ptr96drop_in_place$LT$mmtk..policy..mallocspace..global..MallocSpace$LT$mmtk_openjdk..OpenJDK$GT$$GT$17h4d1600e8b5647ffeE.3483
000000000012bad0 t _ZN4core3ptr98drop_in_place$LT$core..result..Result$LT$regex_syntax..ast..Ast$C$regex_syntax..ast..Error$GT$$GT$17h4be2e94ee05b88d6E
000000000002d0e0 t _ZN4core3ptr98drop_in_place$LT$mmtk..policy..largeobjectspace..LargeObjectSpace$LT$mmtk_openjdk..OpenJDK$GT$$GT$17h2301e70543535010E
00000000000bdd80 t _ZN4core3ptr98drop_in_place$LT$mmtk..policy..largeobjectspace..LargeObjectSpace$LT$mmtk_openjdk..OpenJDK$GT$$GT$17h2301e70543535010E.3038
00000000000bd2a0 t _ZN4core3ptr98drop_in_place$LT$mmtk..policy..markcompactspace..MarkCompactSpace$LT$mmtk_openjdk..OpenJDK$GT$$GT$17h82b150e7e382996aE.2943
00000000000b9780 t _ZN4core3ptr99drop_in_place$LT$mmtk..plan..generational..immix..global..GenImmix$LT$mmtk_openjdk..OpenJDK$GT$$GT$17h0d7504b3f931fc12E
00000000000c3070 t _ZN4core3ptr99drop_in_place$LT$mmtk..plan..generational..immix..global..GenImmix$LT$mmtk_openjdk..OpenJDK$GT$$GT$17h0d7504b3f931fc12E.3184
00000000000c6780 t _ZN4core3ptr99drop_in_place$LT$mmtk..plan..generational..immix..global..GenImmix$LT$mmtk_openjdk..OpenJDK$GT$$GT$17h0d7504b3f931fc12E.3464
00000000000217b0 t _ZN4core3str16slice_error_fail17h8d1d3d890d45258aE
0000000000065d90 t _ZN4core3str21_$LT$impl$u20$str$GT$12trim_matches17he43bc8ceadbe1bcbE
000000000012ace0 t _ZN4core3str21_$LT$impl$u20$str$GT$4find17h447d7ba3c3b96c97E
000000000006d440 t _ZN4core3str21_$LT$impl$u20$str$GT$5parse17h259d596d165d99e1E
000000000006d400 t _ZN4core3str21_$LT$impl$u20$str$GT$5parse17h3918d415116b01d3E
000000000006d4d0 t _ZN4core3str21_$LT$impl$u20$str$GT$5parse17h90236c1f057bc685E
000000000016e680 t _ZN4core3str21_$LT$impl$u20$str$GT$8contains17hd34bf75e948344deE
0000000000021c60 t _ZN4core3str6traits23str_index_overflow_fail17ha31a4368124f800aE
000000000012ae20 t _ZN4core3str6traits66_$LT$impl$u20$core..ops..index..Index$LT$I$GT$$u20$for$u20$str$GT$5index17h9d5ef80e31668cc4E
000000000012ade0 t _ZN4core3str6traits66_$LT$impl$u20$core..ops..index..Index$LT$I$GT$$u20$for$u20$str$GT$5index17hbe3b2ae4745e92d9E
0000000000059870 t _ZN4core3str7pattern11StrSearcher3new17ha15a0e5fa248bcd8E
000000000012aad0 t _ZN4core3str7pattern14TwoWaySearcher4next17h7b98e73df1fc547aE
0000000000059630 t _ZN4core3str8converts9from_utf817hdd0ece293bba1f4fE
0000000000058550 t _ZN4core4char7methods22_$LT$impl$u20$char$GT$16escape_debug_ext17hfc8f8f8806bb78caE
00000000000d37b0 t _ZN4core4hash5impls52_$LT$impl$u20$core..hash..Hash$u20$for$u20$usize$GT$4hash17h41fe0a142390aeb1E
0000000000021be0 t _ZN4core5slice29_$LT$impl$u20$$u5b$T$u5d$$GT$15copy_from_slice17len_mismatch_fail17h8b9949986cf27fffE
000000000002bca0 t _ZN4core5slice4sort14break_patterns17h216b09d263fd9b61E
000000000002beb0 t _ZN4core5slice4sort22partial_insertion_sort17hba46115fe33728b0E
0000000000168290 t _ZN4core5slice4sort7recurse17h326862c9ffc009a9E
000000000002ba50 t _ZN4core5slice4sort8heapsort17hac3be74a6bdaa522E
0000000000021690 t _ZN4core5slice5index22slice_index_order_fail17h79f274959805de1fE
0000000000021560 t _ZN4core5slice5index24slice_end_index_len_fail17h80e02ac829cd41f5E
00000000000214e0 t _ZN4core5slice5index26slice_start_index_len_fail17haac0d373d67dca37E
0000000000021bc0 t _ZN4core5slice5index29slice_end_index_overflow_fail17ha61b21f0e721eae4E
0000000000059520 t _ZN4core5slice6memchr19memchr_general_case17h48b9575f4f17e688E
0000000000021710 t _ZN4core6option13expect_failed17h66ffaa181a3386cdE
000000000016f020 t _ZN4core6option15Option$LT$T$GT$6unwrap17h23766be66cec9052E
0000000000021720 t _ZN4core6result13unwrap_failed17ha0327e3803285d6eE
0000000000171620 r _ZN4core7unicode12unicode_data11white_space17SHORT_OFFSET_RUNS17h8ad92449e34ecc6cE
000000000005c300 t _ZN4core7unicode12unicode_data11white_space6lookup17hb8f81ea138605d09E
00000000001771d7 r _ZN4core7unicode12unicode_data11white_space7OFFSETS17h11cc06c2adf32b28E
0000000000176924 r _ZN4core7unicode12unicode_data14case_ignorable17SHORT_OFFSET_RUNS17hcaa3bf3a228beae7E
00000000001769b0 r _ZN4core7unicode12unicode_data14case_ignorable7OFFSETS17ha1210a66b289046dE
0000000000176e94 r _ZN4core7unicode12unicode_data15grapheme_extend17SHORT_OFFSET_RUNS17hf7042af7a3791dd0E
0000000000058700 t _ZN4core7unicode12unicode_data15grapheme_extend6lookup17had0572e5d6ee3342E
0000000000176f14 r _ZN4core7unicode12unicode_data15grapheme_extend7OFFSETS17h41bd64c7729859b2E
0000000000176d08 r _ZN4core7unicode12unicode_data5cased17SHORT_OFFSET_RUNS17h9614d04c814d17ebE
000000000005c1d0 t _ZN4core7unicode12unicode_data5cased6lookup17hcbed95e661c7222dE
0000000000176d5c r _ZN4core7unicode12unicode_data5cased7OFFSETS17h53f7ec93748b4f36E
000000000005a620 t _ZN4core7unicode9printable12is_printable17h49e451f60b308ca7E
0000000000058830 t _ZN4core7unicode9printable5check17hb263ba863aa496c7E
00000000001702f0 t _ZN4core9core_arch3x865xsave7_xgetbv17hb8d2ce0036b54babE
0000000000021630 t _ZN4core9panicking13assert_failed17h23b2e6ebf71f3dc5E
000000000002b890 t _ZN4core9panicking13assert_failed17h2baf43b7841abc28E
0000000000029760 t _ZN4core9panicking13assert_failed17h35b7f852750a12ebE
000000000002b050 t _ZN4core9panicking13assert_failed17h385f4e63c9a846d7E
0000000000026990 t _ZN4core9panicking13assert_failed17h4158818cacbc841bE
000000000002ab60 t _ZN4core9panicking13assert_failed17h698d8c943c901002E
00000000000211d0 t _ZN4core9panicking13assert_failed17h7ca044a9ec46a3f6E
0000000000022110 t _ZN4core9panicking13assert_failed17h961295d08034dcc0E
0000000000022910 t _ZN4core9panicking13assert_failed17ha504b8f42d22df72E
0000000000026250 t _ZN4core9panicking13assert_failed17hc381c7c07afc06f4E
000000000002b0f0 t _ZN4core9panicking13assert_failed17hc7f9a288d322186cE
00000000000269e0 t _ZN4core9panicking13assert_failed17hcf8e46bcd5f24fafE
0000000000021220 t _ZN4core9panicking13assert_failed17hd1a93bdb59cd949aE
000000000002b0a0 t _ZN4core9panicking13assert_failed17hf710647c55762526E
0000000000057ab0 t _ZN4core9panicking13panic_display17hc29862306554c215E
0000000000021420 t _ZN4core9panicking18panic_bounds_check17h449d4ff4d992b84fE
0000000000053390 t _ZN4core9panicking19assert_failed_inner17h07aa75cd18bc760dE
00000000000fa430 t _ZN4core9panicking19unreachable_display17h66882a74afd920e2E
00000000000215e0 t _ZN4core9panicking5panic17h97167cd315d19cd4E
00000000000214a0 t _ZN4core9panicking9panic_fmt17h3a79a6a99affe1d5E
0000000000057a90 t _ZN4core9panicking9panic_str17h87d368d82cdafdf2E
000000000006dfb0 t _ZN4mmtk14memory_manager12process_bulk17h99b98c2d4650fd5eE
00000000000b5500 t _ZN4mmtk14memory_manager16add_work_packets17h02997ed64a4808eeE
00000000000b3aa0 t _ZN4mmtk14memory_manager9mmtk_init17ha43125525d88d894E
00000000000c4790 t _ZN4mmtk2vm11active_plan10ActivePlan15vm_trace_object17h601ad06144526daaE
00000000000c4660 t _ZN4mmtk2vm11active_plan10ActivePlan8mutators17h88bc59f1bc165e94E
0000000000070ab0 t _ZN4mmtk4mmtk11MMTKBuilder3new17h95258b5c5fab8d4fE
00000000000cfa90 t _ZN4mmtk4mmtk11MMTKBuilder5build17hbd4dc95aa4261b1eE
00000000001c5808 b _ZN4mmtk4mmtk7SFT_MAP17h0fddccaa23b0e921E
00000000000a46d0 t _ZN4mmtk4plan11pageprotect6global21PageProtect$LT$VM$GT$3new17hf4f6766050b0188eE
00000000000bf4a0 t _ZN4mmtk4plan12gc_requester21GCRequester$LT$VM$GT$7request17h5fd006f09c1eee0eE
00000000000bcba0 t _ZN4mmtk4plan12generational5immix6global18GenImmix$LT$VM$GT$3new17h5ff786cd30878fa2E
00000000000f0b80 t _ZN4mmtk4plan12generational6global13Gen$LT$VM$GT$19collection_required17h68ef4076ffb61f1aE
00000000000f0e90 t _ZN4mmtk4plan12generational6global13Gen$LT$VM$GT$19collection_required17hea81c570a4dea6cfE
00000000000f15e0 t _ZN4mmtk4plan12generational6global13Gen$LT$VM$GT$20trace_object_nursery17hb3e9eebc2cfc822eE
00000000000f1330 t _ZN4mmtk4plan12generational6global13Gen$LT$VM$GT$29requires_full_heap_collection17h631adeb8d6332c94E
00000000000f0400 t _ZN4mmtk4plan12generational6global13Gen$LT$VM$GT$3new17hb6518427080526f7E
00000000000f08f0 t _ZN4mmtk4plan12generational6global13Gen$LT$VM$GT$7prepare17h510e17cef816d0ebE
00000000000c1590 t _ZN4mmtk4plan12generational7copying6global17GenCopy$LT$VM$GT$3new17h74e2176cac09ed7eE
00000000000723e0 t _ZN4mmtk4plan15mutator_context18ReservedAllocators8validate17hcb925ee434c510a5E
00000000000a3e80 t _ZN4mmtk4plan15mutator_context20create_space_mapping17h228716e5adcc20bcE
0000000000072540 t _ZN4mmtk4plan15mutator_context24create_allocator_mapping17h1a344cc2d982f443E
00000000000c7680 t _ZN4mmtk4plan6global18BasePlan$LT$VM$GT$13set_gc_status17h4b3a0d0162e3c783E
00000000000c7e20 t _ZN4mmtk4plan6global18BasePlan$LT$VM$GT$19collection_required17h0eacb6e73d5f2600E
00000000000c8020 t _ZN4mmtk4plan6global18BasePlan$LT$VM$GT$19collection_required17h6913ec546b5fbb15E
00000000000c8240 t _ZN4mmtk4plan6global18BasePlan$LT$VM$GT$19collection_required17h8bb36553b816edabE
00000000000c8440 t _ZN4mmtk4plan6global18BasePlan$LT$VM$GT$19collection_required17h9aa3f3ad83d8e2fbE
00000000000c7d50 t _ZN4mmtk4plan6global18BasePlan$LT$VM$GT$21gc_in_progress_proper17h0f22f2966e0f9a5cE
00000000000c7070 t _ZN4mmtk4plan6global18BasePlan$LT$VM$GT$3new17h7648a4d7e79d9210E
00000000000c8910 t _ZN4mmtk4plan6global20CommonPlan$LT$VM$GT$10get_spaces17h3b69d8afec3ac9d1E
00000000000c89d0 t _ZN4mmtk4plan6global20CommonPlan$LT$VM$GT$14get_used_pages17h841b3a4735bbcfb4E
00000000000c8660 t _ZN4mmtk4plan6global20CommonPlan$LT$VM$GT$3new17h193122b7d89b8bf4E
00000000000d4380 t _ZN4mmtk4plan6global4Plan12generational17h0fc552ebc3c4094cE
000000000009b730 t _ZN4mmtk4plan6global4Plan12generational17h2667b9200f98e5cfE
00000000000d43d0 t _ZN4mmtk4plan6global4Plan12generational17h5962ab94c4483da8E
00000000000efbe0 t _ZN4mmtk4plan6global4Plan12generational17h64213ad977a8d8a4E
00000000000a2190 t _ZN4mmtk4plan6global4Plan12generational17hcc9e40381a96a4fdE
00000000000ad4e0 t _ZN4mmtk4plan6global4Plan12generational17hf02caae657f68decE
00000000000d55a0 t _ZN4mmtk4plan6global4Plan12modify_check17h2e70d2a81138f589E
00000000000c00d0 t _ZN4mmtk4plan6global4Plan12modify_check17h6f7a55d26f5809d0E
00000000000d5640 t _ZN4mmtk4plan6global4Plan12modify_check17h7ed8038f1435e2b2E
00000000000f0360 t _ZN4mmtk4plan6global4Plan12modify_check17h9c0e96cf42340318E
00000000000bbb60 t _ZN4mmtk4plan6global4Plan12modify_check17ha7fa43ced1208c5dE
00000000000adc30 t _ZN4mmtk4plan6global4Plan12modify_check17hcea0360987676997E
000000000009c840 t _ZN4mmtk4plan6global4Plan12modify_check17hdb05e0f8fd62d13fE
00000000000a28d0 t _ZN4mmtk4plan6global4Plan12modify_check17hf7637f4d348defe6E
00000000000d5110 t _ZN4mmtk4plan6global4Plan14get_free_pages17h0bc00a377047729eE
00000000000bfcf0 t _ZN4mmtk4plan6global4Plan14get_free_pages17h4f385d1f0066cacaE
00000000000d52e0 t _ZN4mmtk4plan6global4Plan14get_free_pages17h54d6f9535b3055acE
00000000000a2690 t _ZN4mmtk4plan6global4Plan14get_free_pages17h9779f140cb4e4d76E
00000000000bb7a0 t _ZN4mmtk4plan6global4Plan14get_free_pages17habef6f865afb3592E
00000000000f0120 t _ZN4mmtk4plan6global4Plan14get_free_pages17hb155dfd4d429f5c9E
000000000009c2f0 t _ZN4mmtk4plan6global4Plan14get_free_pages17hbe1978c7bbb701adE
00000000000ad9f0 t _ZN4mmtk4plan6global4Plan14get_free_pages17hfb1727d4de22b8d0E
00000000000bf5d0 t _ZN4mmtk4plan6global4Plan14is_initialized17h04e1c719fe6dc6eaE
000000000009b7c0 t _ZN4mmtk4plan6global4Plan14is_initialized17h293e25dc61998d15E
00000000000d44a0 t _ZN4mmtk4plan6global4Plan14is_initialized17h65d83bedad33f2ddE
00000000000ad570 t _ZN4mmtk4plan6global4Plan14is_initialized17h93efe87b21eabe48E
00000000000d44c0 t _ZN4mmtk4plan6global4Plan14is_initialized17haecee00b4863ea06E
00000000000a2220 t _ZN4mmtk4plan6global4Plan14is_initialized17hb26d5c4fc529ce67E
00000000000bb200 t _ZN4mmtk4plan6global4Plan14is_initialized17hb7cb75020cbd6118E
00000000000efc70 t _ZN4mmtk4plan6global4Plan14is_initialized17hf0c60289130c821cE
00000000000d4520 t _ZN4mmtk4plan6global4Plan14prepare_worker17h678be2c1f1f3bbbaE
00000000000a2260 t _ZN4mmtk4plan6global4Plan14prepare_worker17h8c527bc12f90b37aE
000000000009b800 t _ZN4mmtk4plan6global4Plan14prepare_worker17h9f751978d41f15a3E
00000000000ad5b0 t _ZN4mmtk4plan6global4Plan14prepare_worker17ha79e5faa8e247aabE
00000000000bb240 t _ZN4mmtk4plan6global4Plan14prepare_worker17hae0afbbf016a057dE
00000000000efcb0 t _ZN4mmtk4plan6global4Plan14prepare_worker17heeb1374061def462E
00000000000ad7d0 t _ZN4mmtk4plan6global4Plan15get_total_pages17h26def571c35ebe73E
00000000000efed0 t _ZN4mmtk4plan6global4Plan15get_total_pages17h4f6639a1e12dfc3eE
00000000000d4af0 t _ZN4mmtk4plan6global4Plan15get_total_pages17h5bc912ce31187b5aE
000000000009bd70 t _ZN4mmtk4plan6global4Plan15get_total_pages17h63c3d846f475572fE
00000000000d4b00 t _ZN4mmtk4plan6global4Plan15get_total_pages17h99cccb5fd7b3d5dbE
00000000000a2450 t _ZN4mmtk4plan6global4Plan15get_total_pages17ha956a443d401527bE
00000000000bb790 t _ZN4mmtk4plan6global4Plan15get_total_pages17hb10af2efea13a91dE
00000000000bfce0 t _ZN4mmtk4plan6global4Plan15get_total_pages17he71cac6631c21962E
00000000000ad490 t _ZN4mmtk4plan6global4Plan18create_copy_config17h3b407bf5288d6a40E
000000000009b690 t _ZN4mmtk4plan6global4Plan18create_copy_config17h434b01b7797d0611E
00000000000a2140 t _ZN4mmtk4plan6global4Plan18create_copy_config17h72c40eff7c5df207E
00000000000d4330 t _ZN4mmtk4plan6global4Plan18create_copy_config17h8dbbc6c96e73b834E
000000000009b890 t _ZN4mmtk4plan6global4Plan18get_reserved_pages17h11477599fadb1576E
00000000000bf650 t _ZN4mmtk4plan6global4Plan18get_reserved_pages17h44e42882da904102E
00000000000d45f0 t _ZN4mmtk4plan6global4Plan18get_reserved_pages17h6d00cea9e1d5dbcaE
00000000000ad610 t _ZN4mmtk4plan6global4Plan18get_reserved_pages17h904e7af99d8e623eE
00000000000d4950 t _ZN4mmtk4plan6global4Plan18get_reserved_pages17hb7a4eebdba01c2bdE
00000000000efd00 t _ZN4mmtk4plan6global4Plan18get_reserved_pages17hdb532b49974e9514E
00000000000a22b0 t _ZN4mmtk4plan6global4Plan18get_reserved_pages17heafcbfb883a784e2E
00000000000bb290 t _ZN4mmtk4plan6global4Plan18get_reserved_pages17heed128e56a4f4300E
00000000000ad7e0 t _ZN4mmtk4plan6global4Plan19get_available_pages17h0d2c1a4899d0a36bE
00000000000d4b10 t _ZN4mmtk4plan6global4Plan19get_available_pages17h33d882b6a7add542E
00000000000efee0 t _ZN4mmtk4plan6global4Plan19get_available_pages17h46259f22cfecfe57E
000000000009bd80 t _ZN4mmtk4plan6global4Plan19get_available_pages17h549a620e138ee435E
00000000000a2460 t _ZN4mmtk4plan6global4Plan19get_available_pages17h8e7220e45bfc193aE
00000000000d4ea0 t _ZN4mmtk4plan6global4Plan19get_available_pages17habf9552f6ddc75abE
00000000000d4480 t _ZN4mmtk4plan6global4Plan21is_current_gc_nursery17h17d3745705660da5E
000000000009b7b0 t _ZN4mmtk4plan6global4Plan21is_current_gc_nursery17h1b7618db6b0d2161E
00000000000ad560 t _ZN4mmtk4plan6global4Plan21is_current_gc_nursery17h25f99d5cc411297eE
00000000000efc60 t _ZN4mmtk4plan6global4Plan21is_current_gc_nursery17h711d4c88a61c0f23E
00000000000a2210 t _ZN4mmtk4plan6global4Plan21is_current_gc_nursery17h9391340500a9b402E
00000000000d4490 t _ZN4mmtk4plan6global4Plan21is_current_gc_nursery17hf2e1e3b42a6557e7E
00000000000adbb0 t _ZN4mmtk4plan6global4Plan23is_emergency_collection17h143f4743d7f0437eE
00000000000f02e0 t _ZN4mmtk4plan6global4Plan23is_emergency_collection17h3796af1b06b46f49E
00000000000d54a0 t _ZN4mmtk4plan6global4Plan23is_emergency_collection17h3ff7f1a6f0563731E
00000000000a2850 t _ZN4mmtk4plan6global4Plan23is_emergency_collection17h55b8be2869c6728dE
00000000000bbb00 t _ZN4mmtk4plan6global4Plan23is_emergency_collection17h794af20f435dd400E
00000000000d54c0 t _ZN4mmtk4plan6global4Plan23is_emergency_collection17h8969becb42aa14ddE
000000000009c800 t _ZN4mmtk4plan6global4Plan23is_emergency_collection17hc46bf5ea3cfda50eE
00000000000c0050 t _ZN4mmtk4plan6global4Plan23is_emergency_collection17hdb1be52b875334c5E
00000000000f0340 t _ZN4mmtk4plan6global4Plan25last_collection_full_heap17h3d55aec01c28bf57E
000000000009c830 t _ZN4mmtk4plan6global4Plan26force_full_heap_collection17h1017a93bbc8e2e52E
00000000000d5580 t _ZN4mmtk4plan6global4Plan26force_full_heap_collection17h684aa9ca3c4229fdE
00000000000f0350 t _ZN4mmtk4plan6global4Plan26force_full_heap_collection17hd8cb3e799bd19172E
00000000000adc20 t _ZN4mmtk4plan6global4Plan26force_full_heap_collection17hdbb3e5e3b18af089E
00000000000a28c0 t _ZN4mmtk4plan6global4Plan26force_full_heap_collection17he51ed8cbce1e67c4E
00000000000d5590 t _ZN4mmtk4plan6global4Plan26force_full_heap_collection17hebcfaf3b6a0eec11E
00000000000a2680 t _ZN4mmtk4plan6global4Plan29get_collection_reserved_pages17h03f536cb9b83c16aE
00000000000a2870 t _ZN4mmtk4plan6global4Plan30handle_user_collection_request17h02b295aa5d298ac8E
00000000000d54e0 t _ZN4mmtk4plan6global4Plan30handle_user_collection_request17h25120a8adc3acd26E
00000000000c0070 t _ZN4mmtk4plan6global4Plan30handle_user_collection_request17h5b49769f87c247b5E
00000000000bbb20 t _ZN4mmtk4plan6global4Plan30handle_user_collection_request17h77946cd355c22392E
00000000000f0300 t _ZN4mmtk4plan6global4Plan30handle_user_collection_request17h7ed963850e2678dcE
00000000000adbd0 t _ZN4mmtk4plan6global4Plan30handle_user_collection_request17ha19c8accc3250ce0E
00000000000d5520 t _ZN4mmtk4plan6global4Plan30handle_user_collection_request17hcf322d9849ebc381E
000000000009c820 t _ZN4mmtk4plan6global4Plan30last_collection_was_exhaustive17h49a83a1f57b6c020E
00000000000a28b0 t _ZN4mmtk4plan6global4Plan30last_collection_was_exhaustive17h97e10b73d4a6f141E
00000000000d5560 t _ZN4mmtk4plan6global4Plan30last_collection_was_exhaustive17ha7425652396c02ebE
00000000000c00b0 t _ZN4mmtk4plan6global4Plan30last_collection_was_exhaustive17hbfe52d61d2bf8721E
00000000000d5570 t _ZN4mmtk4plan6global4Plan30last_collection_was_exhaustive17hd4dcae9ebc61de2bE
00000000000adc10 t _ZN4mmtk4plan6global4Plan30last_collection_was_exhaustive17heca8a673289b7b93E
00000000000d5070 t _ZN4mmtk4plan6global4Plan35get_mature_physical_pages_available17h248712c4b8d5ac7eE
00000000000d50c0 t _ZN4mmtk4plan6global4Plan35get_mature_physical_pages_available17h36c5c760201ed285E
00000000000f00d0 t _ZN4mmtk4plan6global4Plan35get_mature_physical_pages_available17h69ca0b82a787781fE
00000000000a2630 t _ZN4mmtk4plan6global4Plan35get_mature_physical_pages_available17h958ad973a3584badE
000000000009c2a0 t _ZN4mmtk4plan6global4Plan35get_mature_physical_pages_available17hce9853aa2ad58462E
00000000000ad9a0 t _ZN4mmtk4plan6global4Plan35get_mature_physical_pages_available17hd876c1c01f059dfbE
00000000000a2240 t _ZN4mmtk4plan6global4Plan35should_trigger_gc_when_heap_is_full17h0461899b42638817E
00000000000bf5f0 t _ZN4mmtk4plan6global4Plan35should_trigger_gc_when_heap_is_full17h0d21036a61802aabE
00000000000d44e0 t _ZN4mmtk4plan6global4Plan35should_trigger_gc_when_heap_is_full17h3d01573cff8ff69bE
00000000000ad590 t _ZN4mmtk4plan6global4Plan35should_trigger_gc_when_heap_is_full17h489e78ab89b7cf78E
00000000000bb220 t _ZN4mmtk4plan6global4Plan35should_trigger_gc_when_heap_is_full17h66c70ae7516e6ad1E
00000000000d4500 t _ZN4mmtk4plan6global4Plan35should_trigger_gc_when_heap_is_full17h81ba22ca492fc0ffE
000000000009b7e0 t _ZN4mmtk4plan6global4Plan35should_trigger_gc_when_heap_is_full17ha9fc4a85c913b180E
00000000000efc90 t _ZN4mmtk4plan6global4Plan35should_trigger_gc_when_heap_is_full17hc884d9b645e09071E
00000000000d4530 t _ZN4mmtk4plan6global4Plan4poll17h11ff4ac765b97380E
00000000000bf610 t _ZN4mmtk4plan6global4Plan4poll17h1727be10b70cdbf0E
00000000000ad5c0 t _ZN4mmtk4plan6global4Plan4poll17h2fcaba35dc189281E
00000000000efcc0 t _ZN4mmtk4plan6global4Plan4poll17h406e1b014e6a5d25E
00000000000d4570 t _ZN4mmtk4plan6global4Plan4poll17h4af5b085b191e522E
000000000009b810 t _ZN4mmtk4plan6global4Plan4poll17h7639253676df6cbeE
00000000000bb250 t _ZN4mmtk4plan6global4Plan4poll17hab72b9ed95f26db5E
00000000000a2270 t _ZN4mmtk4plan6global4Plan4poll17hd4860958c4f7d052E
000000000009b6e0 t _ZN4mmtk4plan6global4Plan6common17h9626d118576c43b7E
00000000000ad530 t _ZN4mmtk4plan6global4Plan7mmapper17h3d57393d9a5bc1eaE
00000000000d4420 t _ZN4mmtk4plan6global4Plan7mmapper17h54c3d8005bda282eE
00000000000bf5a0 t _ZN4mmtk4plan6global4Plan7mmapper17h7df2d0713f281f2fE
00000000000bb1d0 t _ZN4mmtk4plan6global4Plan7mmapper17h8912de4eff42346dE
000000000009b780 t _ZN4mmtk4plan6global4Plan7mmapper17ha9690463916c6b0bE
00000000000a21e0 t _ZN4mmtk4plan6global4Plan7mmapper17hbd882b46fb6e8f49E
00000000000d4430 t _ZN4mmtk4plan6global4Plan7mmapper17hbdb38f5ce6bd6363E
00000000000efc30 t _ZN4mmtk4plan6global4Plan7mmapper17he16407b850191ccbE
00000000000efc40 t _ZN4mmtk4plan6global4Plan7options17h0630ae22837c3b8eE
00000000000a21f0 t _ZN4mmtk4plan6global4Plan7options17h1174351b95b2ba13E
000000000009b790 t _ZN4mmtk4plan6global4Plan7options17h22151291ec7ec90cE
00000000000bb1e0 t _ZN4mmtk4plan6global4Plan7options17h29247806783a658dE
00000000000bf5b0 t _ZN4mmtk4plan6global4Plan7options17h2bf4c0807df2d4a9E
00000000000d4440 t _ZN4mmtk4plan6global4Plan7options17h2e87934f943f2276E
00000000000d4460 t _ZN4mmtk4plan6global4Plan7options17h870280cfa8d040d9E
00000000000ad540 t _ZN4mmtk4plan6global4Plan7options17hf52793011d7d9e07E
00000000000ad600 t _ZN4mmtk4plan6global4Plan8log_poll17h0acfc2a4c1e47803E
00000000000d56e0 t _ZN4mmtk4plan7tracing23ObjectsClosure$LT$E$GT$5flush17h3808f761befbe787E
00000000000d5dd0 t _ZN4mmtk4plan7tracing23ObjectsClosure$LT$E$GT$5flush17h5e059162c8d16006E
00000000000d67b0 t _ZN4mmtk4plan7tracing23ObjectsClosure$LT$E$GT$5flush17h682e7320a25e0955E
00000000000d6c90 t _ZN4mmtk4plan7tracing23ObjectsClosure$LT$E$GT$5flush17h6fa1f69673a39fdfE
00000000000d7530 t _ZN4mmtk4plan7tracing23ObjectsClosure$LT$E$GT$5flush17h8cf9508517175f7cE
00000000000d7d90 t _ZN4mmtk4plan7tracing23ObjectsClosure$LT$E$GT$5flush17h99f98a9b8b18e5d6E
00000000000d8630 t _ZN4mmtk4plan7tracing23ObjectsClosure$LT$E$GT$5flush17he86ea9b018894db6E
00000000000d8ea0 t _ZN4mmtk4plan7tracing23ObjectsClosure$LT$E$GT$5flush17he8b1f02a2a1c577dE
00000000000d9670 t _ZN4mmtk4plan7tracing23ObjectsClosure$LT$E$GT$5flush17hf067a31ffbc8cec5E
00000000000d9c90 t _ZN4mmtk4plan7tracing23ObjectsClosure$LT$E$GT$5flush17hf16fc30be155c401E
00000000000da170 t _ZN4mmtk4plan7tracing23ObjectsClosure$LT$E$GT$5flush17hf2df6e12d1fdcc29E
00000000000ae980 t _ZN4mmtk4plan9marksweep6global19MarkSweep$LT$VM$GT$3new17h78151fda25c5eb0eE
00000000000b72d0 t _ZN4mmtk4plan9semispace7mutator18ss_mutator_release17h4f1adcf703d12c1cE
000000000009e410 t _ZN4mmtk4util10statistics5stats5Stats8stop_all17h24606478314eaf15E
000000000006e390 t _ZN4mmtk4util16generic_freelist15GenericFreeList11add_to_free17h6e536cd27c288f90E
00000000000dda00 t _ZN4mmtk4util16generic_freelist15GenericFreeList11add_to_free17h6ef75be5dc48bfe0E
00000000000ddac0 t _ZN4mmtk4util16generic_freelist15GenericFreeList18__remove_from_free17h8beb560fccb5adcdE
00000000000ddbf0 t _ZN4mmtk4util16generic_freelist15GenericFreeList4free17he76b8dfd884d7769E
000000000006e1b0 t _ZN4mmtk4util16generic_freelist15GenericFreeList7__alloc17h73feb824687793ceE
00000000000ddb40 t _ZN4mmtk4util16generic_freelist15GenericFreeList8set_free17h90a1685aed1caa66E
00000000000a5e40 t _ZN4mmtk4util17object_forwarding14forward_object17h5a46d749d2e0cc8fE
000000000006e460 t _ZN4mmtk4util19raw_memory_freelist17RawMemoryFreeList13grow_freelist17h056b41c90be738d7E
000000000007f9a0 t _ZN4mmtk4util19reference_processor18ReferenceProcessor4scan17h0df66ad5818730beE
00000000000831b0 t _ZN4mmtk4util19reference_processor18ReferenceProcessor4scan17h2ea55d055b95f856E
0000000000083d10 t _ZN4mmtk4util19reference_processor18ReferenceProcessor4scan17h5ca05faa5af7dfd0E
000000000007e600 t _ZN4mmtk4util19reference_processor18ReferenceProcessor4scan17h810f0f6fc048f690E
0000000000081a50 t _ZN4mmtk4util19reference_processor18ReferenceProcessor4scan17hb0e865177c3f6012E
00000000000806c0 t _ZN4mmtk4util19reference_processor18ReferenceProcessor4scan17hb4a2c301ff839476E
0000000000081250 t _ZN4mmtk4util19reference_processor18ReferenceProcessor4scan17hcfdf2dfe3f9e3c9aE
00000000000843c0 t _ZN4mmtk4util19reference_processor18ReferenceProcessor4scan17hd16197f58c8642c6E
00000000000825e0 t _ZN4mmtk4util19reference_processor18ReferenceProcessor4scan17he7ea75b8718472c1E
000000000007f050 t _ZN4mmtk4util19reference_processor18ReferenceProcessor4scan17hed09d69efd95948fE
0000000000087310 t _ZN4mmtk4util19reference_processor18ReferenceProcessor7enqueue17h879d390ac8b932f9E
0000000000086460 t _ZN4mmtk4util19reference_processor18ReferenceProcessor7forward17h5fde1deb4b26ae0bE
000000000007c7b0 t _ZN4mmtk4util19reference_processor19ReferenceProcessors3new17h5ea74e2cbc890577E
00000000000cc060 t _ZN4mmtk4util21finalizable_processor29FinalizableProcessor$LT$F$GT$29forward_finalizable_reference17h0cef9d5bcdcc102bE
00000000000ce490 t _ZN4mmtk4util21finalizable_processor29FinalizableProcessor$LT$F$GT$29forward_finalizable_reference17h2144a339b5e1dcc7E
00000000000cd3e0 t _ZN4mmtk4util21finalizable_processor29FinalizableProcessor$LT$F$GT$29forward_finalizable_reference17h38146d0c2b61020cE
00000000000cb750 t _ZN4mmtk4util21finalizable_processor29FinalizableProcessor$LT$F$GT$29forward_finalizable_reference17h7902acac29cbb427E
00000000000ca8c0 t _ZN4mmtk4util21finalizable_processor29FinalizableProcessor$LT$F$GT$29forward_finalizable_reference17hc146e017e4586286E
00000000000cdbb0 t _ZN4mmtk4util21finalizable_processor29FinalizableProcessor$LT$F$GT$29forward_finalizable_reference17hfc463e1784cb0715E
00000000000cc9c0 t _ZN4mmtk4util21finalizable_processor29FinalizableProcessor$LT$F$GT$29forward_finalizable_reference17hfcc178038da1b148E
00000000000dd5c0 t _ZN4mmtk4util4copy29GCWorkerCopyContext$LT$VM$GT$7prepare17hc8b26d17e4c75ed4E
00000000000dd7e0 t _ZN4mmtk4util4copy29GCWorkerCopyContext$LT$VM$GT$7release17h0724de401d113796E
00000000000ab660 t _ZN4mmtk4util4heap12pageresource12PageResource12commit_pages17h47fa6f6d57d5147dE
0000000000040b60 t _ZN4mmtk4util4heap12pageresource12PageResource12commit_pages17ha2a37b2380514c39E
0000000000040aa0 t _ZN4mmtk4util4heap12pageresource12PageResource13clear_request17h18f8ae3fdaaae3bcE
00000000000ab5a0 t _ZN4mmtk4util4heap12pageresource12PageResource13clear_request17hfe0c387c37bd3b45E
0000000000040a80 t _ZN4mmtk4util4heap12pageresource12PageResource13get_new_pages17h2500f0da7faff1f9E
00000000000ab570 t _ZN4mmtk4util4heap12pageresource12PageResource13get_new_pages17h892fe2f614acde57E
00000000000ab590 t _ZN4mmtk4util4heap12pageresource12PageResource13reserve_pages17h32ba9b3b07a7ebd8E
00000000000ab6a0 t _ZN4mmtk4util4heap12pageresource12PageResource14reserved_pages17h35757fdda9121b2dE
0000000000040ba0 t _ZN4mmtk4util4heap12pageresource12PageResource14reserved_pages17h66cab125598be151E
0000000000040bb0 t _ZN4mmtk4util4heap12pageresource12PageResource15committed_pages17h7505d28194172a38E
00000000000ab6b0 t _ZN4mmtk4util4heap12pageresource12PageResource15committed_pages17h99ef06461d103abcE
0000000000040b10 t _ZN4mmtk4util4heap12pageresource12PageResource18concurrent_zeroing17h33691af343e3fb01E
00000000000ab610 t _ZN4mmtk4util4heap12pageresource12PageResource18concurrent_zeroing17ha614f94522d7679bE
0000000000040ad0 t _ZN4mmtk4util4heap12pageresource12PageResource23skip_concurrent_zeroing17h626e57d375a7b6f4E
00000000000ab5d0 t _ZN4mmtk4util4heap12pageresource12PageResource23skip_concurrent_zeroing17he8ca37b469ab1abbE
0000000000040ab0 t _ZN4mmtk4util4heap12pageresource12PageResource23update_zeroing_approach17ha1ae2ec69b081371E
00000000000ab5b0 t _ZN4mmtk4util4heap12pageresource12PageResource23update_zeroing_approach17hd2bbba06350b88a1E
00000000000ab5f0 t _ZN4mmtk4util4heap12pageresource12PageResource26trigger_concurrent_zeroing17h8aac9bf98168e002E
0000000000040af0 t _ZN4mmtk4util4heap12pageresource12PageResource26trigger_concurrent_zeroing17haca21a772603b8a2E
00000000000ab6c0 t _ZN4mmtk4util4heap12pageresource12PageResource6vm_map17h7f060ab71fd89d7bE
0000000000040bc0 t _ZN4mmtk4util4heap12pageresource12PageResource6vm_map17hf24124faea173af7E
0000000000072670 t _ZN4mmtk4util4heap12pageresource18CommonPageResource24grow_discontiguous_space17h1302aa0f8b1c9295E
0000000000072950 t _ZN4mmtk4util4heap12pageresource18CommonPageResource29get_head_discontiguous_region17hce091feb0dbbbcbeE
00000000001c40c0 d _ZN4mmtk4util4heap16space_descriptor25DISCONTIGUOUS_SPACE_INDEX17h81bd8be7cc5cd40eE
00000000000ab270 t _ZN4mmtk4util4heap20freelistpageresource30FreeListPageResource$LT$VM$GT$13release_pages17h98a19c6d008a7503E
00000000000ab050 t _ZN4mmtk4util4heap20freelistpageresource30FreeListPageResource$LT$VM$GT$14new_contiguous17hb8f608d70df0a49aE
00000000000ab160 t _ZN4mmtk4util4heap20freelistpageresource30FreeListPageResource$LT$VM$GT$17new_discontiguous17h2176a67d165c9f3fE
00000000000409a0 t _ZN4mmtk4util4heap20monotonepageresource30MonotonePageResource$LT$VM$GT$6cursor17h7fb393d2ca8ca53bE
00000000000785a0 t _ZN4mmtk4util4heap6layout17fragmented_mapper16FragmentedMapper37get_or_optionally_allocate_slab_table17h4c0997bc0b7c51f7E
0000000000079210 t _ZN4mmtk4util4heap6layout17fragmented_mapper16FragmentedMapper3new17hbd0384ab247486ecE
00000000000a2970 t _ZN4mmtk4util5alloc10allocators20Allocators$LT$VM$GT$17get_allocator_mut17h959ad59a1f1d5b91E
00000000000a4a20 t _ZN4mmtk4util5alloc10allocators20Allocators$LT$VM$GT$3new17h1a456efa486b60eaE
0000000000027090 t _ZN4mmtk4util5alloc15immix_allocator24ImmixAllocator$LT$VM$GT$14alloc_slow_hot17hd62859ba8f33c75fE
00000000000c93a0 t _ZN4mmtk4util5alloc15immix_allocator24ImmixAllocator$LT$VM$GT$14overflow_alloc17h53f32e774c106c75E
00000000000c9160 t _ZN4mmtk4util5alloc15immix_allocator24ImmixAllocator$LT$VM$GT$19acquire_clean_block17h7bfe7e6cdf96811bE
00000000000c9680 t _ZN4mmtk4util5alloc15immix_allocator24ImmixAllocator$LT$VM$GT$24acquire_recyclable_lines17h5e0fd5aa4056ae69E
00000000000c3660 t _ZN4mmtk4util5alloc9allocator9Allocator10alloc_slow17h2286ba393b1c7004E
00000000000f3290 t _ZN4mmtk4util5alloc9allocator9Allocator10alloc_slow17h61544bb95b9c8cb7E
00000000000b5750 t _ZN4mmtk4util5alloc9allocator9Allocator10alloc_slow17h6287aa9b37dac48eE
00000000000c8cf0 t _ZN4mmtk4util5alloc9allocator9Allocator10alloc_slow17h8895cd406af7853aE
00000000000af090 t _ZN4mmtk4util5alloc9allocator9Allocator10alloc_slow17he88178b41f0169dbE
00000000000a2ac0 t _ZN4mmtk4util5alloc9allocator9Allocator17alloc_slow_inline17h0a04d3f3f4f73091E
00000000000a3600 t _ZN4mmtk4util5alloc9allocator9Allocator17alloc_slow_inline17h25174bff88d289b7E
00000000000a38d0 t _ZN4mmtk4util5alloc9allocator9Allocator17alloc_slow_inline17h2623ad31c3cc92d7E
00000000000a3070 t _ZN4mmtk4util5alloc9allocator9Allocator17alloc_slow_inline17ha98a4aa2e504dfb3E
00000000000a3350 t _ZN4mmtk4util5alloc9allocator9Allocator17alloc_slow_inline17he6c13ba9b9e03288E
00000000000b6780 t _ZN4mmtk4util5alloc9allocator9Allocator30alloc_slow_once_precise_stress17hb23e6d1c17f1c573E
00000000000c3910 t _ZN4mmtk4util5alloc9allocator9Allocator30alloc_slow_once_precise_stress17he1f81452d283a559E
00000000000b5700 t _ZN4mmtk4util5alloc9allocator9Allocator35get_thread_local_buffer_granularity17h5011dd0cf305fcb9E
00000000000c3610 t _ZN4mmtk4util5alloc9allocator9Allocator35get_thread_local_buffer_granularity17h802f48d8254468b5E
000000000009e1f0 t _ZN4mmtk4util6memory17handle_mmap_error17h19a19d58e30fffd4E
000000000006ed30 t _ZN4mmtk4util7address7Address9is_mapped17h0bd3fc573d009d46E
000000000006c0c0 t _ZN4mmtk4util7options11NurserySize5parse17h1e662b769a8d8a93E
000000000006dfa0 t _ZN4mmtk4util7options12always_valid17h622b08321a7ad6f3E
000000000006d800 t _ZN4mmtk4util7options19MMTKOption$LT$T$GT$3set17h79c9d7cec2a4b5e8E
000000000006c300 t _ZN4mmtk4util7options7Options16set_from_env_var17h41432149789dffd7E
000000000006da70 t _ZN4mmtk4util7options7Options21set_from_command_line17h0bb93b9977a4057eE
000000000006c7e0 t _ZN4mmtk4util7options7Options9set_inner17h0983b7f49e3519b2E
0000000000074550 t _ZN4mmtk4util8metadata13side_metadata6sanity18SideMetadataSanity13get_all_specs17h07f006d645246d48E
0000000000073060 t _ZN4mmtk4util8metadata13side_metadata6sanity18SideMetadataSanity23verify_metadata_context17h9b24efc73bd805d2E
0000000000074410 t _ZN4mmtk4util8metadata13side_metadata6sanity28verify_no_overlap_contiguous17h7dd0b5c56f4ba4d0E
000000000007c3a0 t _ZN4mmtk4util8metadata13side_metadata7helpers34try_mmap_contiguous_metadata_space17h775450b73d62f000E
00000000000bd350 t _ZN4mmtk4util8metadata7log_bit67_$LT$impl$u20$mmtk..vm..object_model..specs..VMGlobalLogBitSpec$GT$16mark_as_unlogged17hf761a3ead4f0300fE
000000000009b380 t _ZN4mmtk6policy11mallocspace6global21MallocSpace$LT$VM$GT$11sweep_chunk17h323cb072dbae6071E
00000000000b4890 t _ZN4mmtk6policy11mallocspace6global21MallocSpace$LT$VM$GT$12trace_object17h6924d223f24e8753E
00000000000d7ba0 t _ZN4mmtk6policy11mallocspace6global21MallocSpace$LT$VM$GT$12trace_object17h6924d223f24e8753E.3847
00000000000be7d0 t _ZN4mmtk6policy13immortalspace23ImmortalSpace$LT$VM$GT$12trace_object17he97648bf40d49ee6E
00000000000bf1c0 t _ZN4mmtk6policy13immortalspace23ImmortalSpace$LT$VM$GT$3new17hfac79e61ab896336E
000000000003b2a0 t _ZN4mmtk6policy16largeobjectspace26LargeObjectSpace$LT$VM$GT$12trace_object17hb820104e84067cb5E
000000000003b9c0 t _ZN4mmtk6policy16largeobjectspace26LargeObjectSpace$LT$VM$GT$17sweep_large_pages17h72bb454ad7fe9d8cE
000000000003ab60 t _ZN4mmtk6policy16largeobjectspace26LargeObjectSpace$LT$VM$GT$3new17hf58ee180e81efb16E
00000000000acd30 t _ZN4mmtk6policy16markcompactspace26MarkCompactSpace$LT$VM$GT$17trace_mark_object17hd2b4e0c3ecb9e79bE
00000000000ace00 t _ZN4mmtk6policy16markcompactspace26MarkCompactSpace$LT$VM$GT$20trace_forward_object17h531231ef4f0726d5E
00000000000aced0 t _ZN4mmtk6policy16markcompactspace26MarkCompactSpace$LT$VM$GT$28calculate_forwarding_pointer17h810efd93b23a7a33E
00000000000ad070 t _ZN4mmtk6policy16markcompactspace26MarkCompactSpace$LT$VM$GT$7compact17he7083e54e7a02e9fE
00000000000b26b0 t _ZN4mmtk6policy5immix10immixspace20ImmixSpace$LT$VM$GT$3new17h4b8435bbfaffc32dE
00000000000b2cd0 t _ZN4mmtk6policy5immix10immixspace20ImmixSpace$LT$VM$GT$7prepare17h3a5d4f01c16822faE
00000000000b3640 t _ZN4mmtk6policy5immix10immixspace20ImmixSpace$LT$VM$GT$7release17h114b41aaf14ea13eE
00000000000b6800 t _ZN4mmtk6policy5space21CommonSpace$LT$VM$GT$3new17h68ed0103ae1abfc7E
000000000002d240 t _ZN4mmtk6policy5space3SFT11is_in_space17h2075e9c158ff3197E
00000000000b0460 t _ZN4mmtk6policy5space3SFT11is_in_space17h2c124eecb1920ea1E
00000000000b7290 t _ZN4mmtk6policy5space3SFT11is_in_space17h6634964e951f5779E
00000000000ac3b0 t _ZN4mmtk6policy5space3SFT11is_in_space17hbaecafabd3ac744dE
00000000000b7490 t _ZN4mmtk6policy5space3SFT12is_reachable17h00b0c76b36d8c700E
00000000000ac360 t _ZN4mmtk6policy5space3SFT12is_reachable17h187cb4082fffb0f0E
000000000006ead0 t _ZN4mmtk6policy5space3SFT12is_reachable17h26ae54126ac581b7E
000000000002d200 t _ZN4mmtk6policy5space3SFT12is_reachable17h320649ab8376a6dbE
000000000009ace0 t _ZN4mmtk6policy5space3SFT12is_reachable17h61212ef225719b42E
00000000000b0410 t _ZN4mmtk6policy5space3SFT12is_reachable17hc61eed9f6af92786E
000000000006eac0 t _ZN4mmtk6policy5space3SFT20get_forwarded_object17h0f033123f70932cfE
000000000002d1f0 t _ZN4mmtk6policy5space3SFT20get_forwarded_object17h1659797d70857949E
000000000009ac90 t _ZN4mmtk6policy5space3SFT20get_forwarded_object17h72a46e81cdca5768E
00000000000b03b0 t _ZN4mmtk6policy5space3SFT20get_forwarded_object17h97c6e8ea4ac5cadeE
000000000009c9d0 t _ZN4mmtk6policy5space3SFT20get_forwarded_object17hd810c821f717c075E
00000000000c58f0 t _ZN4mmtk6policy5space5Space10grow_space17h4518634ec4ee5deaE
00000000000ac650 t _ZN4mmtk6policy5space5Space10grow_space17h6f102e0f76f5b0aaE
000000000002dac0 t _ZN4mmtk6policy5space5Space10grow_space17h70ad25c9aaf9bf28E
00000000000bea90 t _ZN4mmtk6policy5space5Space10grow_space17hbe2f6341ed421a6cE
00000000000b06b0 t _ZN4mmtk6policy5space5Space10grow_space17hc845e0a85314c8e9E
000000000009abf0 t _ZN4mmtk6policy5space5Space10grow_space17hd45eeeb3f26ef260E
00000000000c5d50 t _ZN4mmtk6policy5space5Space12print_vm_map17h3a091c3fa0820728E
00000000000acaa0 t _ZN4mmtk6policy5space5Space12print_vm_map17h4a06dad232f71233E
00000000000bef30 t _ZN4mmtk6policy5space5Space12print_vm_map17h4b3fc0e538a6a676E
000000000002df00 t _ZN4mmtk6policy5space5Space12print_vm_map17h544a90f21f7a0815E
00000000000b0b50 t _ZN4mmtk6policy5space5Space12print_vm_map17h6e5d661aca664f67E
000000000009b080 t _ZN4mmtk6policy5space5Space12print_vm_map17h9f23454d8f75ee4fE
000000000002db40 t _ZN4mmtk6policy5space5Space13ensure_mapped17h1107393eb31fbd30E
00000000000b0730 t _ZN4mmtk6policy5space5Space13ensure_mapped17h2629f12991d1e2d3E
00000000000c5970 t _ZN4mmtk6policy5space5Space13ensure_mapped17h3fb4b542b50354daE
00000000000ac6d0 t _ZN4mmtk6policy5space5Space13ensure_mapped17hd1e8f6b4f32824dfE
00000000000beb10 t _ZN4mmtk6policy5space5Space13ensure_mapped17hf341611294eecd77E
00000000000b08d0 t _ZN4mmtk6policy5space5Space14reserved_pages17h23d84ebc276a1155E
00000000000becb0 t _ZN4mmtk6policy5space5Space14reserved_pages17h7e08e0413ee2291cE
00000000000c5b10 t _ZN4mmtk6policy5space5Space14reserved_pages17h827cfc5f706e2824E
000000000002dce0 t _ZN4mmtk6policy5space5Space14reserved_pages17hbc1ca5f2abed4d48E
00000000000ac870 t _ZN4mmtk6policy5space5Space14reserved_pages17hc3f70531a74f40b0E
00000000000c57d0 t _ZN4mmtk6policy5space5Space16address_in_space17h313c6b0c973c8c8dE
000000000002d9a0 t _ZN4mmtk6policy5space5Space16address_in_space17h3306dd93824cabfdE
00000000000b0590 t _ZN4mmtk6policy5space5Space16address_in_space17h5799d08c15b8a944E
00000000000be970 t _ZN4mmtk6policy5space5Space16address_in_space17h82cfa11c24e3fbc3E
00000000000ac530 t _ZN4mmtk6policy5space5Space16address_in_space17hd7dcadc997726c0fE
000000000002deb0 t _ZN4mmtk6policy5space5Space22set_copy_for_sft_trace17h2a72a9e26f8561c9E
00000000000beee0 t _ZN4mmtk6policy5space5Space22set_copy_for_sft_trace17ha8ee5b7117ef8e73E
00000000000c5cb0 t _ZN4mmtk6policy5space5Space24available_physical_pages17h0f2d4bd1062313c5E
00000000000b0a70 t _ZN4mmtk6policy5space5Space24available_physical_pages17h1619dbaf94e180e7E
00000000000aca10 t _ZN4mmtk6policy5space5Space24available_physical_pages17h1d190714391e64e4E
00000000000bee50 t _ZN4mmtk6policy5space5Space24available_physical_pages17h862402f0f404232bE
000000000002de80 t _ZN4mmtk6policy5space5Space24available_physical_pages17ha61e0bad0354193cE
000000000009b050 t _ZN4mmtk6policy5space5Space24available_physical_pages17hf7e0f4d7b8263930E
00000000000c5fc0 t _ZN4mmtk6policy5space5Space27verify_side_metadata_sanity17h0db60593552be972E
00000000000b0dc0 t _ZN4mmtk6policy5space5Space27verify_side_metadata_sanity17h3028f8d8a392e295E
00000000000bf1a0 t _ZN4mmtk6policy5space5Space27verify_side_metadata_sanity17h660919bec03d6e73E
000000000002e170 t _ZN4mmtk6policy5space5Space27verify_side_metadata_sanity17h85228d3ce63a4902E
00000000000acd10 t _ZN4mmtk6policy5space5Space27verify_side_metadata_sanity17h90628489192b032eE
00000000000abba0 t _ZN4mmtk6policy5space5Space7acquire17h160a7603d2576707E
00000000000c4f70 t _ZN4mmtk6policy5space5Space7acquire17h31d4c02281868fa5E
000000000009ab10 t _ZN4mmtk6policy5space5Space7acquire17h5f3439e8a12a64b8E
000000000002d250 t _ZN4mmtk6policy5space5Space7acquire17ha198ccc8ca4eebd5E
00000000000bdfd0 t _ZN4mmtk6policy5space5Space7acquire17hca3f2a3e3683b6f7E
00000000000afc50 t _ZN4mmtk6policy5space5Space7acquire17hfd447c779b6f42f9E
000000000002dea0 t _ZN4mmtk6policy5space5Space8get_name17h1c72a5a16628603eE
00000000000b0a90 t _ZN4mmtk6policy5space5Space8get_name17h2284d43b3e7db25cE
00000000000bee70 t _ZN4mmtk6policy5space5Space8get_name17h6f6f865c552b26f3E
00000000000c5cd0 t _ZN4mmtk6policy5space5Space8get_name17ha2888a72ac826312E
00000000000aca30 t _ZN4mmtk6policy5space5Space8get_name17heab3d8f155c251b6E
00000000000b0620 t _ZN4mmtk6policy5space5Space8in_space17h4a4b17e0d01e6b00E
00000000000ac5c0 t _ZN4mmtk6policy5space5Space8in_space17h63b5f2ffd9b1d196E
00000000000c5860 t _ZN4mmtk6policy5space5Space8in_space17h9758db08faeeee8eE
00000000000bea00 t _ZN4mmtk6policy5space5Space8in_space17hb2e60221477529efE
000000000002da30 t _ZN4mmtk6policy5space5Space8in_space17hbf2da0e8c67d038cE
000000000006ea00 t _ZN4mmtk6policy5space6SFTMap3new17h5b69b3df22ce3541E
00000000000c5fe0 t _ZN4mmtk6policy9copyspace19CopySpace$LT$VM$GT$3new17hcbfb4a47409d29d2E
00000000000c6370 t _ZN4mmtk6policy9copyspace19CopySpace$LT$VM$GT$7release17hcfd9baee9e100f02E
00000000000e9350 t _ZN4mmtk9scheduler10controller22GCController$LT$VM$GT$3run17h2d82bda3fcffda36E
000000000009d110 t _ZN4mmtk9scheduler4stat13SchedulerStat5merge17h00ed33508391eb69E
000000000007b580 t _ZN4mmtk9scheduler4stat13SchedulerStat9work_name17he4a52fe0abadb541E
00000000000e4f80 t _ZN4mmtk9scheduler4work6GCWork17do_work_with_stat17h000af97ee36117f6E
000000000003be20 t _ZN4mmtk9scheduler4work6GCWork17do_work_with_stat17h02c4e27b7a3a928eE
000000000003be30 t _ZN4mmtk9scheduler4work6GCWork17do_work_with_stat17h07f5b6ef812e5df6E
00000000000e70e0 t _ZN4mmtk9scheduler4work6GCWork17do_work_with_stat17h08ab7093087e4301E
00000000000c2840 t _ZN4mmtk9scheduler4work6GCWork17do_work_with_stat17h08f02037084d8113E
00000000000e2400 t _ZN4mmtk9scheduler4work6GCWork17do_work_with_stat17h09e51b6840fda226E
00000000000b23a0 t _ZN4mmtk9scheduler4work6GCWork17do_work_with_stat17h0b499f5c00d68f2fE
000000000003be50 t _ZN4mmtk9scheduler4work6GCWork17do_work_with_stat17h0b5e7503c29b6642E
000000000003be70 t _ZN4mmtk9scheduler4work6GCWork17do_work_with_stat17h0bedef9ce0b55c42E
000000000003be90 t _ZN4mmtk9scheduler4work6GCWork17do_work_with_stat17h0c4f49e91e60a622E
000000000003beb0 t _ZN4mmtk9scheduler4work6GCWork17do_work_with_stat17h0cec4fdd061f779eE
000000000003bec0 t _ZN4mmtk9scheduler4work6GCWork17do_work_with_stat17h0eddcb8935334ed4E
00000000000e5020 t _ZN4mmtk9scheduler4work6GCWork17do_work_with_stat17h101d8e1622f75c46E
00000000000e4ff0 t _ZN4mmtk9scheduler4work6GCWork17do_work_with_stat17h10aa560d5d6a5addE
000000000003bed0 t _ZN4mmtk9scheduler4work6GCWork17do_work_with_stat17h10f1c2669b8d7333E
00000000000e70f0 t _ZN4mmtk9scheduler4work6GCWork17do_work_with_stat17h128f3e5ba42e1033E
00000000000e6580 t _ZN4mmtk9scheduler4work6GCWork17do_work_with_stat17h139c5799b4732b35E
000000000003bee0 t _ZN4mmtk9scheduler4work6GCWork17do_work_with_stat17h13fc0d281256599cE
000000000003bf00 t _ZN4mmtk9scheduler4work6GCWork17do_work_with_stat17h1414f26e1b71c455E
00000000000e23e0 t _ZN4mmtk9scheduler4work6GCWork17do_work_with_stat17h154776cccd2b4b8bE
000000000003bf20 t _ZN4mmtk9scheduler4work6GCWork17do_work_with_stat17h158e6e126319f116E
000000000003bf40 t _ZN4mmtk9scheduler4work6GCWork17do_work_with_stat17h16149d7127d55ba4E
00000000000b1f20 t _ZN4mmtk9scheduler4work6GCWork17do_work_with_stat17h18202c891ccf0671E
000000000003bf60 t _ZN4mmtk9scheduler4work6GCWork17do_work_with_stat17h182f870b10c33c8cE
00000000000877e0 t _ZN4mmtk9scheduler4work6GCWork17do_work_with_stat17h1860b85d4f6168bfE
000000000003bf80 t _ZN4mmtk9scheduler4work6GCWork17do_work_with_stat17h191ae8cdb05b4601E
00000000000b4ab0 t _ZN4mmtk9scheduler4work6GCWork17do_work_with_stat17h1992e8e4f4e5e5e8E
000000000003bfa0 t _ZN4mmtk9scheduler4work6GCWork17do_work_with_stat17h199fe305bdd15d12E
00000000000e4fe0 t _ZN4mmtk9scheduler4work6GCWork17do_work_with_stat17h1b0b09a08e0b674fE
00000000000dbb20 t _ZN4mmtk9scheduler4work6GCWork17do_work_with_stat17h1b3c83ccf50c53eaE
000000000003bfc0 t _ZN4mmtk9scheduler4work6GCWork17do_work_with_stat17h1c417629f8285097E
00000000000e5000 t _ZN4mmtk9scheduler4work6GCWork17do_work_with_stat17h1d40a7a4f6ecfcf6E
000000000003bfe0 t _ZN4mmtk9scheduler4work6GCWork17do_work_with_stat17h1da9aa3f1ca2929fE
000000000003c000 t _ZN4mmtk9scheduler4work6GCWork17do_work_with_stat17h1e7081f19318c63cE
000000000003c020 t _ZN4mmtk9scheduler4work6GCWork17do_work_with_stat17h1ee8ebeb2b17d2d6E
00000000000b2160 t _ZN4mmtk9scheduler4work6GCWork17do_work_with_stat17h1f3ee8ebcc5bb2c3E
00000000000e6610 t _ZN4mmtk9scheduler4work6GCWork17do_work_with_stat17h200e2f599289b8deE
000000000003c040 t _ZN4mmtk9scheduler4work6GCWork17do_work_with_stat17h203f74425cffc5cfE
00000000000e2430 t _ZN4mmtk9scheduler4work6GCWork17do_work_with_stat17h275561bfecb996ddE
00000000000e6600 t _ZN4mmtk9scheduler4work6GCWork17do_work_with_stat17h278a21f11498bd1aE
000000000003c060 t _ZN4mmtk9scheduler4work6GCWork17do_work_with_stat17h27dce9f160a45b06E
000000000003c080 t _ZN4mmtk9scheduler4work6GCWork17do_work_with_stat17h282aafa214ea4a5aE
00000000000d9c80 t _ZN4mmtk9scheduler4work6GCWork17do_work_with_stat17h282aafa214ea4a5aE.3863
00000000000dbed0 t _ZN4mmtk9scheduler4work6GCWork17do_work_with_stat17h29d8b33330b75291E
00000000000b11a0 t _ZN4mmtk9scheduler4work6GCWork17do_work_with_stat17h2a44ce69a0e16cc5E
000000000008b370 t _ZN4mmtk9scheduler4work6GCWork17do_work_with_stat17h2a82d43dae895135E
000000000003c090 t _ZN4mmtk9scheduler4work6GCWork17do_work_with_stat17h2a9a4fcc5b640784E
000000000003c0a0 t _ZN4mmtk9scheduler4work6GCWork17do_work_with_stat17h2bde01128f2e9702E
000000000003c0c0 t _ZN4mmtk9scheduler4work6GCWork17do_work_with_stat17h2cc95c893da4e897E
00000000000e4f70 t _ZN4mmtk9scheduler4work6GCWork17do_work_with_stat17h2f18ad374e3e2336E
000000000003c0e0 t _ZN4mmtk9scheduler4work6GCWork17do_work_with_stat17h32127eb096bcc131E
00000000000e65b0 t _ZN4mmtk9scheduler4work6GCWork17do_work_with_stat17h3370b7aedba0b58aE
0000000000087780 t _ZN4mmtk9scheduler4work6GCWork17do_work_with_stat17h376869ebb6e75d78E
00000000000e2f10 t _ZN4mmtk9scheduler4work6GCWork17do_work_with_stat17h39e7702e882cde70E
000000000003c100 t _ZN4mmtk9scheduler4work6GCWork17do_work_with_stat17h3a48dd486b05c463E
000000000003c120 t _ZN4mmtk9scheduler4work6GCWork17do_work_with_stat17h3ca7d33cbaf75aa2E
00000000000d4320 t _ZN4mmtk9scheduler4work6GCWork17do_work_with_stat17h3d6b51e08c063e63E
000000000003c140 t _ZN4mmtk9scheduler4work6GCWork17do_work_with_stat17h3de927b7f0a91faaE
000000000003c160 t _ZN4mmtk9scheduler4work6GCWork17do_work_with_stat17h3f2631e3201a5724E
000000000003c180 t _ZN4mmtk9scheduler4work6GCWork17do_work_with_stat17h3f4c88ad98d51e1cE
00000000000b1ce0 t _ZN4mmtk9scheduler4work6GCWork17do_work_with_stat17h41001938325e38a3E
00000000000dbb30 t _ZN4mmtk9scheduler4work6GCWork17do_work_with_stat17h41e0a53fc1682621E
000000000003c1a0 t _ZN4mmtk9scheduler4work6GCWork17do_work_with_stat17h42355f5463fd7a3aE
00000000000e6550 t _ZN4mmtk9scheduler4work6GCWork17do_work_with_stat17h42e6388df9b0c855E
00000000000e39e0 t _ZN4mmtk9scheduler4work6GCWork17do_work_with_stat17h443d1ae14ab81c57E
000000000008ab00 t _ZN4mmtk9scheduler4work6GCWork17do_work_with_stat17h44f65707405edaa1E
00000000000dbb40 t _ZN4mmtk9scheduler4work6GCWork17do_work_with_stat17h4538dcc6106d6ea9E
00000000000dbb00 t _ZN4mmtk9scheduler4work6GCWork17do_work_with_stat17h474551cbdcd69e20E
000000000003c1b0 t _ZN4mmtk9scheduler4work6GCWork17do_work_with_stat17h4775d8774546a441E
00000000000e4fd0 t _ZN4mmtk9scheduler4work6GCWork17do_work_with_stat17h4805f5fa88243d50E
000000000003c1d0 t _ZN4mmtk9scheduler4work6GCWork17do_work_with_stat17h4912ea575c4064a5E
00000000000b5010 t _ZN4mmtk9scheduler4work6GCWork17do_work_with_stat17h492ed6dba2d29373E
00000000000b45a0 t _ZN4mmtk9scheduler4work6GCWork17do_work_with_stat17h4a1da4779b9470e3E
000000000003c1f0 t _ZN4mmtk9scheduler4work6GCWork17do_work_with_stat17h4bd223b9070ef562E
000000000003c210 t _ZN4mmtk9scheduler4work6GCWork17do_work_with_stat17h4c41ac9bb1700722E
000000000003c230 t _ZN4mmtk9scheduler4work6GCWork17do_work_with_stat17h4da3f18c886b936dE
000000000003c250 t _ZN4mmtk9scheduler4work6GCWork17do_work_with_stat17h4e16ff258f36ad7dE
000000000003c270 t _ZN4mmtk9scheduler4work6GCWork17do_work_with_stat17h4e39e606913ad3a0E
000000000008acb0 t _ZN4mmtk9scheduler4work6GCWork17do_work_with_stat17h4e6a0d954ef724d5E
000000000003c290 t _ZN4mmtk9scheduler4work6GCWork17do_work_with_stat17h4f171d689dd2f6daE
000000000003c2b0 t _ZN4mmtk9scheduler4work6GCWork17do_work_with_stat17h4ff6dc2bfac89c91E
000000000003c2d0 t _ZN4mmtk9scheduler4work6GCWork17do_work_with_stat17h50198c483af1e010E
000000000003c2f0 t _ZN4mmtk9scheduler4work6GCWork17do_work_with_stat17h51359c8eb7df3f73E
00000000000e23f0 t _ZN4mmtk9scheduler4work6GCWork17do_work_with_stat17h516ef4364a53a8c6E
00000000000e3a00 t _ZN4mmtk9scheduler4work6GCWork17do_work_with_stat17h520f67c984d03313E
000000000003c310 t _ZN4mmtk9scheduler4work6GCWork17do_work_with_stat17h5249bae0d112fbc3E
00000000000b5000 t _ZN4mmtk9scheduler4work6GCWork17do_work_with_stat17h5249bae0d112fbc3E.2661
00000000000d7520 t _ZN4mmtk9scheduler4work6GCWork17do_work_with_stat17h5249bae0d112fbc3E.3842
00000000000dbab0 t _ZN4mmtk9scheduler4work6GCWork17do_work_with_stat17h526f9506008142fdE
000000000003c320 t _ZN4mmtk9scheduler4work6GCWork17do_work_with_stat17h52c05fccafa9a24dE
00000000000b1620 t _ZN4mmtk9scheduler4work6GCWork17do_work_with_stat17h54cf66713647630cE
00000000000e2420 t _ZN4mmtk9scheduler4work6GCWork17do_work_with_stat17h55a5078a5948dcacE
000000000003c340 t _ZN4mmtk9scheduler4work6GCWork17do_work_with_stat17h55c8b82e02fdb3f3E
000000000003c350 t _ZN4mmtk9scheduler4work6GCWork17do_work_with_stat17h56d06c832c9979aeE
000000000003c370 t _ZN4mmtk9scheduler4work6GCWork17do_work_with_stat17h57e41a15e9d3fedaE
000000000003c390 t _ZN4mmtk9scheduler4work6GCWork17do_work_with_stat17h57fa4131e186da38E
00000000000b4a70 t _ZN4mmtk9scheduler4work6GCWork17do_work_with_stat17h58bfd51f9870b55fE
000000000003c3b0 t _ZN4mmtk9scheduler4work6GCWork17do_work_with_stat17h59f3221c84f68bfcE
00000000000e39d0 t _ZN4mmtk9scheduler4work6GCWork17do_work_with_stat17h5b5a90b96edfcc4aE
00000000000dbfd0 t _ZN4mmtk9scheduler4work6GCWork17do_work_with_stat17h5cc3f536761d12b2E
00000000000e44e0 t _ZN4mmtk9scheduler4work6GCWork17do_work_with_stat17h5da5f935017aae27E
000000000003c3d0 t _ZN4mmtk9scheduler4work6GCWork17do_work_with_stat17h5e3730b605947de3E
00000000000d6bd0 t _ZN4mmtk9scheduler4work6GCWork17do_work_with_stat17h5e3730b605947de3E.3838
00000000000dbee0 t _ZN4mmtk9scheduler4work6GCWork17do_work_with_stat17h5f9970412af60b70E
00000000000e2440 t _ZN4mmtk9scheduler4work6GCWork17do_work_with_stat17h5fa98891672a088bE
000000000003c490 t _ZN4mmtk9scheduler4work6GCWork17do_work_with_stat17h624ee1fb5ff9c60cE
00000000000e65a0 t _ZN4mmtk9scheduler4work6GCWork17do_work_with_stat17h62554b001d523bffE
00000000000e4fb0 t _ZN4mmtk9scheduler4work6GCWork17do_work_with_stat17h6394726d47a3abc8E
000000000003c4b0 t _ZN4mmtk9scheduler4work6GCWork17do_work_with_stat17h6653af0e4447c0bdE
00000000000ae5b0 t _ZN4mmtk9scheduler4work6GCWork17do_work_with_stat17h666d9c9916bd81cbE
00000000000e70d0 t _ZN4mmtk9scheduler4work6GCWork17do_work_with_stat17h67bbb0f4ddb51a23E
000000000003c4d0 t _ZN4mmtk9scheduler4work6GCWork17do_work_with_stat17h6be39134e6afcff5E
00000000000b4210 t _ZN4mmtk9scheduler4work6GCWork17do_work_with_stat17h6c44be87458dbf3aE
00000000000b1aa0 t _ZN4mmtk9scheduler4work6GCWork17do_work_with_stat17h6da5eeea1f9bfab9E
000000000003c4f0 t _ZN4mmtk9scheduler4work6GCWork17do_work_with_stat17h6daf35fae600b184E
000000000003c510 t _ZN4mmtk9scheduler4work6GCWork17do_work_with_stat17h6e13ce7ff4f21df0E
00000000000e44c0 t _ZN4mmtk9scheduler4work6GCWork17do_work_with_stat17h6e8808aaacf5b8adE
00000000000e65c0 t _ZN4mmtk9scheduler4work6GCWork17do_work_with_stat17h6eaf0a04b648cb60E
000000000003c530 t _ZN4mmtk9scheduler4work6GCWork17do_work_with_stat17h6f57e22d24bc20a8E
000000000003c550 t _ZN4mmtk9scheduler4work6GCWork17do_work_with_stat17h710f902b37a6ae28E
000000000008b1c0 t _ZN4mmtk9scheduler4work6GCWork17do_work_with_stat17h71378c1202183e16E
00000000000dbac0 t _ZN4mmtk9scheduler4work6GCWork17do_work_with_stat17h758037c2ac9a8a14E
00000000000b4af0 t _ZN4mmtk9scheduler4work6GCWork17do_work_with_stat17h7655df232e5c89e8E
000000000003c570 t _ZN4mmtk9scheduler4work6GCWork17do_work_with_stat17h76ad3363892bd0bdE
000000000003c590 t _ZN4mmtk9scheduler4work6GCWork17do_work_with_stat17h76c6a921672566e2E
00000000000d3fa0 t _ZN4mmtk9scheduler4work6GCWork17do_work_with_stat17h772526978dba386bE
000000000003c5b0 t _ZN4mmtk9scheduler4work6GCWork17do_work_with_stat17h7795cb2c177ad63bE
000000000003c5d0 t _ZN4mmtk9scheduler4work6GCWork17do_work_with_stat17h780664a0d30f94baE
00000000000e39c0 t _ZN4mmtk9scheduler4work6GCWork17do_work_with_stat17h78d0e86587b5f049E
000000000003c5f0 t _ZN4mmtk9scheduler4work6GCWork17do_work_with_stat17h7a81683d3d03e066E
00000000000e2f00 t _ZN4mmtk9scheduler4work6GCWork17do_work_with_stat17h7dfb5c28f21c2dd8E
00000000000e39a0 t _ZN4mmtk9scheduler4work6GCWork17do_work_with_stat17h7ec44ed9b1973278E
000000000003c610 t _ZN4mmtk9scheduler4work6GCWork17do_work_with_stat17h7ef8ddd8865d8f21E
000000000003c630 t _ZN4mmtk9scheduler4work6GCWork17do_work_with_stat17h809e6c893e91d38fE
000000000003c650 t _ZN4mmtk9scheduler4work6GCWork17do_work_with_stat17h80e2bf3db3481211E
00000000000e5010 t _ZN4mmtk9scheduler4work6GCWork17do_work_with_stat17h816c9e6d849605c3E
000000000003c670 t _ZN4mmtk9scheduler4work6GCWork17do_work_with_stat17h82d654ecc8b1e04fE
0000000000089140 t _ZN4mmtk9scheduler4work6GCWork17do_work_with_stat17h8416931d67df78caE
000000000003c690 t _ZN4mmtk9scheduler4work6GCWork17do_work_with_stat17h8456f094cd86a2fdE
00000000000e6570 t _ZN4mmtk9scheduler4work6GCWork17do_work_with_stat17h8b3fbd5d41c76938E
000000000003c6b0 t _ZN4mmtk9scheduler4work6GCWork17do_work_with_stat17h8b99ed5054251194E
000000000003c6d0 t _ZN4mmtk9scheduler4work6GCWork17do_work_with_stat17h8ba180616e065f3aE
000000000003c6f0 t _ZN4mmtk9scheduler4work6GCWork17do_work_with_stat17h8cdc315ce660c727E
00000000000e5030 t _ZN4mmtk9scheduler4work6GCWork17do_work_with_stat17h8ee16accbcbcd868E
000000000003c710 t _ZN4mmtk9scheduler4work6GCWork17do_work_with_stat17h9120807d37af8292E
00000000000e4fc0 t _ZN4mmtk9scheduler4work6GCWork17do_work_with_stat17h913f0b06cbca704cE
000000000003c730 t _ZN4mmtk9scheduler4work6GCWork17do_work_with_stat17h9164e2d35096925fE
000000000008ae60 t _ZN4mmtk9scheduler4work6GCWork17do_work_with_stat17h92441a0cf564af55E
00000000000dbfa0 t _ZN4mmtk9scheduler4work6GCWork17do_work_with_stat17h9285408f86b3df92E
00000000000e65f0 t _ZN4mmtk9scheduler4work6GCWork17do_work_with_stat17h9493440607ea71e1E
000000000008a440 t _ZN4mmtk9scheduler4work6GCWork17do_work_with_stat17h984f67de508d4049E
00000000000e4490 t _ZN4mmtk9scheduler4work6GCWork17do_work_with_stat17h9bd1ca6ff10c8837E
000000000003c750 t _ZN4mmtk9scheduler4work6GCWork17do_work_with_stat17h9d55015c544d8abfE
00000000000da160 t _ZN4mmtk9scheduler4work6GCWork17do_work_with_stat17h9d55015c544d8abfE.3867
000000000008b010 t _ZN4mmtk9scheduler4work6GCWork17do_work_with_stat17h9d6c717b17244f56E
000000000003c760 t _ZN4mmtk9scheduler4work6GCWork17do_work_with_stat17h9d726099c5cbc4adE
00000000000d9660 t _ZN4mmtk9scheduler4work6GCWork17do_work_with_stat17h9d726099c5cbc4adE.3859
00000000000e44d0 t _ZN4mmtk9scheduler4work6GCWork17do_work_with_stat17h9d93520c4dc15875E
000000000003c770 t _ZN4mmtk9scheduler4work6GCWork17do_work_with_stat17h9db9140a4243576cE
00000000000e2ef0 t _ZN4mmtk9scheduler4work6GCWork17do_work_with_stat17h9f8caa2d021fe151E
00000000000e65d0 t _ZN4mmtk9scheduler4work6GCWork17do_work_with_stat17ha29d502677de2667E
000000000008a5f0 t _ZN4mmtk9scheduler4work6GCWork17do_work_with_stat17ha313a10e0ad472a5E
000000000003c790 t _ZN4mmtk9scheduler4work6GCWork17do_work_with_stat17ha447919447062409E
000000000003c7b0 t _ZN4mmtk9scheduler4work6GCWork17do_work_with_stat17ha467af140c1a6a81E
000000000003c7d0 t _ZN4mmtk9scheduler4work6GCWork17do_work_with_stat17ha6306c2a965f3259E
000000000003c7e0 t _ZN4mmtk9scheduler4work6GCWork17do_work_with_stat17ha75b1ee85e978c38E
00000000000e6560 t _ZN4mmtk9scheduler4work6GCWork17do_work_with_stat17ha784dfd46a2c1a6fE
000000000003c800 t _ZN4mmtk9scheduler4work6GCWork17do_work_with_stat17ha86c784dd6e39b4eE
00000000000e6590 t _ZN4mmtk9scheduler4work6GCWork17do_work_with_stat17ha8e8f8f288a35cdbE
00000000000dbad0 t _ZN4mmtk9scheduler4work6GCWork17do_work_with_stat17ha977bb8d78dcbcecE
00000000000b4a90 t _ZN4mmtk9scheduler4work6GCWork17do_work_with_stat17haa49d04af78c52b8E
000000000003c820 t _ZN4mmtk9scheduler4work6GCWork17do_work_with_stat17haba84df303d399fdE
000000000003c840 t _ZN4mmtk9scheduler4work6GCWork17do_work_with_stat17habb19de7e4270cacE
000000000003c860 t _ZN4mmtk9scheduler4work6GCWork17do_work_with_stat17had30be6a9a2a23e4E
00000000000ae4c0 t _ZN4mmtk9scheduler4work6GCWork17do_work_with_stat17hae1581558f5c7d16E
000000000003c880 t _ZN4mmtk9scheduler4work6GCWork17do_work_with_stat17hb0e0ee40cd90a81fE
00000000000d8620 t _ZN4mmtk9scheduler4work6GCWork17do_work_with_stat17hb0e0ee40cd90a81fE.3851
000000000003c890 t _ZN4mmtk9scheduler4work6GCWork17do_work_with_stat17hb2b627b391ee99cdE
000000000003c8b0 t _ZN4mmtk9scheduler4work6GCWork17do_work_with_stat17hb41620acf709fc0aE
00000000000e44b0 t _ZN4mmtk9scheduler4work6GCWork17do_work_with_stat17hb59387dc1ef23b10E
000000000003c8d0 t _ZN4mmtk9scheduler4work6GCWork17do_work_with_stat17hb5c0a871d482152fE
00000000000da750 t _ZN4mmtk9scheduler4work6GCWork17do_work_with_stat17hb5c0a871d482152fE.3871
00000000000e39f0 t _ZN4mmtk9scheduler4work6GCWork17do_work_with_stat17hb66a019c1f7be55bE
00000000000e44a0 t _ZN4mmtk9scheduler4work6GCWork17do_work_with_stat17hb7eeb67a8e01dcafE
000000000003c8e0 t _ZN4mmtk9scheduler4work6GCWork17do_work_with_stat17hb994c25f07527091E
000000000003c900 t _ZN4mmtk9scheduler4work6GCWork17do_work_with_stat17hba6d1ca3fd20f37bE
00000000000e65e0 t _ZN4mmtk9scheduler4work6GCWork17do_work_with_stat17hbb30d29dc013ade1E
000000000003c920 t _ZN4mmtk9scheduler4work6GCWork17do_work_with_stat17hbbb75f75415a7b30E
00000000000b41e0 t _ZN4mmtk9scheduler4work6GCWork17do_work_with_stat17hbbb75f75415a7b30E.2611
00000000000d67a0 t _ZN4mmtk9scheduler4work6GCWork17do_work_with_stat17hbbb75f75415a7b30E.3834
000000000003c930 t _ZN4mmtk9scheduler4work6GCWork17do_work_with_stat17hbc1e19e157addb23E
000000000003c950 t _ZN4mmtk9scheduler4work6GCWork17do_work_with_stat17hbc3e14ba5e22c642E
00000000000b54f0 t _ZN4mmtk9scheduler4work6GCWork17do_work_with_stat17hbc3e14ba5e22c642E.2681
00000000000d8e90 t _ZN4mmtk9scheduler4work6GCWork17do_work_with_stat17hbc3e14ba5e22c642E.3855
00000000000b4580 t _ZN4mmtk9scheduler4work6GCWork17do_work_with_stat17hbda43f2b164269f7E
00000000000e2410 t _ZN4mmtk9scheduler4work6GCWork17do_work_with_stat17hbe194cd07b792c2bE
000000000003c960 t _ZN4mmtk9scheduler4work6GCWork17do_work_with_stat17hbe2359cf4875891cE
000000000003c980 t _ZN4mmtk9scheduler4work6GCWork17do_work_with_stat17hbe4281768a7b888cE
00000000000e4fa0 t _ZN4mmtk9scheduler4work6GCWork17do_work_with_stat17hbfc1e4155f293185E
00000000000dbb10 t _ZN4mmtk9scheduler4work6GCWork17do_work_with_stat17hbffa47a7c961a720E
000000000003c9a0 t _ZN4mmtk9scheduler4work6GCWork17do_work_with_stat17hc0de3bec1b0c3b9bE
000000000003c9c0 t _ZN4mmtk9scheduler4work6GCWork17do_work_with_stat17hc18874d183aac7cdE
000000000003c9e0 t _ZN4mmtk9scheduler4work6GCWork17do_work_with_stat17hc222e7757427de96E
000000000003ca00 t _ZN4mmtk9scheduler4work6GCWork17do_work_with_stat17hc3182eaee9edcde2E
00000000000b0f60 t _ZN4mmtk9scheduler4work6GCWork17do_work_with_stat17hc3a4e2304c4d74feE
000000000003ca20 t _ZN4mmtk9scheduler4work6GCWork17do_work_with_stat17hc4781be7d9278f81E
00000000000dbfe0 t _ZN4mmtk9scheduler4work6GCWork17do_work_with_stat17hc50fa9533db6f466E
00000000000b3b90 t _ZN4mmtk9scheduler4work6GCWork17do_work_with_stat17hc521eca3c5eb3f14E
000000000003ca30 t _ZN4mmtk9scheduler4work6GCWork17do_work_with_stat17hc725e518615fade2E
00000000000b4880 t _ZN4mmtk9scheduler4work6GCWork17do_work_with_stat17hc725e518615fade2E.2643
00000000000d7b90 t _ZN4mmtk9scheduler4work6GCWork17do_work_with_stat17hc725e518615fade2E.3846
00000000000dbfc0 t _ZN4mmtk9scheduler4work6GCWork17do_work_with_stat17hc795e5f491fa9caaE
000000000003ca40 t _ZN4mmtk9scheduler4work6GCWork17do_work_with_stat17hc87a70cf90628c15E
000000000003ca60 t _ZN4mmtk9scheduler4work6GCWork17do_work_with_stat17hc94a83446ba3bb50E
000000000003ca80 t _ZN4mmtk9scheduler4work6GCWork17do_work_with_stat17hc970e23cdbe9ec22E
000000000003caa0 t _ZN4mmtk9scheduler4work6GCWork17do_work_with_stat17hcaa94c0090cadfd8E
000000000003cac0 t _ZN4mmtk9scheduler4work6GCWork17do_work_with_stat17hcd0910d68db39e98E
000000000003cae0 t _ZN4mmtk9scheduler4work6GCWork17do_work_with_stat17hcd7d3d318dbe1850E
000000000003cb00 t _ZN4mmtk9scheduler4work6GCWork17do_work_with_stat17hd063f8152b057badE
000000000003cb20 t _ZN4mmtk9scheduler4work6GCWork17do_work_with_stat17hd09d83edc71e2499E
000000000008a7a0 t _ZN4mmtk9scheduler4work6GCWork17do_work_with_stat17hd236f9dddb51f436E
000000000003cb40 t _ZN4mmtk9scheduler4work6GCWork17do_work_with_stat17hd7df02206e2304a2E
00000000000e5ac0 t _ZN4mmtk9scheduler4work6GCWork17do_work_with_stat17hd8f1e1e86c548d7eE
000000000003cb60 t _ZN4mmtk9scheduler4work6GCWork17do_work_with_stat17hd98e5e94517b1d72E
00000000000e70b0 t _ZN4mmtk9scheduler4work6GCWork17do_work_with_stat17hda0c564cb87c0cb9E
0000000000089100 t _ZN4mmtk9scheduler4work6GCWork17do_work_with_stat17hda508ac3e0734cdbE
00000000000e70c0 t _ZN4mmtk9scheduler4work6GCWork17do_work_with_stat17hdbd372bdd8a7b65eE
000000000003cb80 t _ZN4mmtk9scheduler4work6GCWork17do_work_with_stat17hdd390f507725e47bE
000000000003cba0 t _ZN4mmtk9scheduler4work6GCWork17do_work_with_stat17hdd585e17467fed82E
000000000003cbc0 t _ZN4mmtk9scheduler4work6GCWork17do_work_with_stat17hdead8b369415f8d5E
000000000003cbe0 t _ZN4mmtk9scheduler4work6GCWork17do_work_with_stat17he05b955c4312da6cE
00000000000b4ad0 t _ZN4mmtk9scheduler4work6GCWork17do_work_with_stat17he1dab2f9ac97fa88E
00000000000e2ee0 t _ZN4mmtk9scheduler4work6GCWork17do_work_with_stat17he2f274ffc4529184E
00000000000e39b0 t _ZN4mmtk9scheduler4work6GCWork17do_work_with_stat17he3523167c51d1fb2E
00000000000b41f0 t _ZN4mmtk9scheduler4work6GCWork17do_work_with_stat17he368fdbdf7b52a20E
000000000003cc00 t _ZN4mmtk9scheduler4work6GCWork17do_work_with_stat17he47b3a3c5a0cb5aaE
00000000000e2ed0 t _ZN4mmtk9scheduler4work6GCWork17do_work_with_stat17he55981c2a4b7959fE
000000000003cc10 t _ZN4mmtk9scheduler4work6GCWork17do_work_with_stat17he67c1d563b7123eaE
000000000003cc30 t _ZN4mmtk9scheduler4work6GCWork17do_work_with_stat17he7a0604d1ecad645E
000000000003cc50 t _ZN4mmtk9scheduler4work6GCWork17do_work_with_stat17he8cd48611fbfb8bbE
000000000003cc70 t _ZN4mmtk9scheduler4work6GCWork17do_work_with_stat17he994e705d27613c2E
000000000003cc90 t _ZN4mmtk9scheduler4work6GCWork17do_work_with_stat17heb413861eda824efE
000000000003ccb0 t _ZN4mmtk9scheduler4work6GCWork17do_work_with_stat17hec6ba350398ff733E
00000000000e70a0 t _ZN4mmtk9scheduler4work6GCWork17do_work_with_stat17hed8ecb40624dcbcbE
000000000003ccd0 t _ZN4mmtk9scheduler4work6GCWork17do_work_with_stat17hede395fd672fb570E
000000000003ccf0 t _ZN4mmtk9scheduler4work6GCWork17do_work_with_stat17hef77feb6687f1dafE
000000000003cd10 t _ZN4mmtk9scheduler4work6GCWork17do_work_with_stat17hefb55f87edd25c3bE
00000000000b4570 t _ZN4mmtk9scheduler4work6GCWork17do_work_with_stat17hefb55f87edd25c3bE.2629
00000000000d5dc0 t _ZN4mmtk9scheduler4work6GCWork17do_work_with_stat17hefb55f87edd25c3bE.3830
000000000003cd20 t _ZN4mmtk9scheduler4work6GCWork17do_work_with_stat17hf16ec6bbd04c1751E
000000000003cd30 t _ZN4mmtk9scheduler4work6GCWork17do_work_with_stat17hf2a4908dcd38ca16E
00000000000e4f90 t _ZN4mmtk9scheduler4work6GCWork17do_work_with_stat17hf55b51658e4b2eedE
000000000003cd50 t _ZN4mmtk9scheduler4work6GCWork17do_work_with_stat17hf5ee58a7eff018ceE
00000000000b13e0 t _ZN4mmtk9scheduler4work6GCWork17do_work_with_stat17hf6900d88cb48ff2fE
000000000003cd70 t _ZN4mmtk9scheduler4work6GCWork17do_work_with_stat17hf76baa21a739e6c3E
000000000008a950 t _ZN4mmtk9scheduler4work6GCWork17do_work_with_stat17hf77c9671246fd227E
000000000003cd90 t _ZN4mmtk9scheduler4work6GCWork17do_work_with_stat17hf900d135732bdcfeE
000000000003cdb0 t _ZN4mmtk9scheduler4work6GCWork17do_work_with_stat17hfd46b18f9a5872dcE
000000000003cdd0 t _ZN4mmtk9scheduler4work6GCWork17do_work_with_stat17hfe12cbec768ba5dbE
00000000000dbb60 t _ZN4mmtk9scheduler4work6GCWork17do_work_with_stat17hfe5744015ebe7078E
00000000000b1860 t _ZN4mmtk9scheduler4work6GCWork17do_work_with_stat17hff508c22456c1c9aE
00000000000e7330 t _ZN4mmtk9scheduler6worker18GCWorker$LT$VM$GT$3run17h6db72bbef7fce452E
000000000003cdf0 t _ZN4mmtk9scheduler7gc_work136_$LT$impl$u20$mmtk..scheduler..work..GCWork$LT$$LT$E$u20$as$u20$mmtk..scheduler..gc_work..ProcessEdgesWork$GT$..VM$GT$$u20$for$u20$E$GT$7do_work17h01436cc1fb6e9187E
00000000000d6b10 t _ZN4mmtk9scheduler7gc_work136_$LT$impl$u20$mmtk..scheduler..work..GCWork$LT$$LT$E$u20$as$u20$mmtk..scheduler..gc_work..ProcessEdgesWork$GT$..VM$GT$$u20$for$u20$E$GT$7do_work17h01436cc1fb6e9187E.3837
000000000003ceb0 t _ZN4mmtk9scheduler7gc_work136_$LT$impl$u20$mmtk..scheduler..work..GCWork$LT$$LT$E$u20$as$u20$mmtk..scheduler..gc_work..ProcessEdgesWork$GT$..VM$GT$$u20$for$u20$E$GT$7do_work17h0efba82b5f6d7b25E
00000000000d9240 t _ZN4mmtk9scheduler7gc_work136_$LT$impl$u20$mmtk..scheduler..work..GCWork$LT$$LT$E$u20$as$u20$mmtk..scheduler..gc_work..ProcessEdgesWork$GT$..VM$GT$$u20$for$u20$E$GT$7do_work17h0efba82b5f6d7b25E.3858
000000000003d2d0 t _ZN4mmtk9scheduler7gc_work136_$LT$impl$u20$mmtk..scheduler..work..GCWork$LT$$LT$E$u20$as$u20$mmtk..scheduler..gc_work..ProcessEdgesWork$GT$..VM$GT$$u20$for$u20$E$GT$7do_work17h29c49018333fe3a7E
00000000000d9a10 t _ZN4mmtk9scheduler7gc_work136_$LT$impl$u20$mmtk..scheduler..work..GCWork$LT$$LT$E$u20$as$u20$mmtk..scheduler..gc_work..ProcessEdgesWork$GT$..VM$GT$$u20$for$u20$E$GT$7do_work17h29c49018333fe3a7E.3862
000000000003d540 t _ZN4mmtk9scheduler7gc_work136_$LT$impl$u20$mmtk..scheduler..work..GCWork$LT$$LT$E$u20$as$u20$mmtk..scheduler..gc_work..ProcessEdgesWork$GT$..VM$GT$$u20$for$u20$E$GT$7do_work17h2f19fe873522903bE
00000000000d8130 t _ZN4mmtk9scheduler7gc_work136_$LT$impl$u20$mmtk..scheduler..work..GCWork$LT$$LT$E$u20$as$u20$mmtk..scheduler..gc_work..ProcessEdgesWork$GT$..VM$GT$$u20$for$u20$E$GT$7do_work17h2f19fe873522903bE.3850
000000000003da30 t _ZN4mmtk9scheduler7gc_work136_$LT$impl$u20$mmtk..scheduler..work..GCWork$LT$$LT$E$u20$as$u20$mmtk..scheduler..gc_work..ProcessEdgesWork$GT$..VM$GT$$u20$for$u20$E$GT$7do_work17h722dbd983d0a5a40E
00000000000da030 t _ZN4mmtk9scheduler7gc_work136_$LT$impl$u20$mmtk..scheduler..work..GCWork$LT$$LT$E$u20$as$u20$mmtk..scheduler..gc_work..ProcessEdgesWork$GT$..VM$GT$$u20$for$u20$E$GT$7do_work17h722dbd983d0a5a40E.3866
000000000003db60 t _ZN4mmtk9scheduler7gc_work136_$LT$impl$u20$mmtk..scheduler..work..GCWork$LT$$LT$E$u20$as$u20$mmtk..scheduler..gc_work..ProcessEdgesWork$GT$..VM$GT$$u20$for$u20$E$GT$7do_work17h9c8f4ca32938e88aE
00000000000b4b10 t _ZN4mmtk9scheduler7gc_work136_$LT$impl$u20$mmtk..scheduler..work..GCWork$LT$$LT$E$u20$as$u20$mmtk..scheduler..gc_work..ProcessEdgesWork$GT$..VM$GT$$u20$for$u20$E$GT$7do_work17h9c8f4ca32938e88aE.2660
00000000000d7030 t _ZN4mmtk9scheduler7gc_work136_$LT$impl$u20$mmtk..scheduler..work..GCWork$LT$$LT$E$u20$as$u20$mmtk..scheduler..gc_work..ProcessEdgesWork$GT$..VM$GT$$u20$for$u20$E$GT$7do_work17h9c8f4ca32938e88aE.3841
000000000003e050 t _ZN4mmtk9scheduler7gc_work136_$LT$impl$u20$mmtk..scheduler..work..GCWork$LT$$LT$E$u20$as$u20$mmtk..scheduler..gc_work..ProcessEdgesWork$GT$..VM$GT$$u20$for$u20$E$GT$7do_work17hb638be443b284890E
00000000000b4230 t _ZN4mmtk9scheduler7gc_work136_$LT$impl$u20$mmtk..scheduler..work..GCWork$LT$$LT$E$u20$as$u20$mmtk..scheduler..gc_work..ProcessEdgesWork$GT$..VM$GT$$u20$for$u20$E$GT$7do_work17hb638be443b284890E.2628
00000000000d5a80 t _ZN4mmtk9scheduler7gc_work136_$LT$impl$u20$mmtk..scheduler..work..GCWork$LT$$LT$E$u20$as$u20$mmtk..scheduler..gc_work..ProcessEdgesWork$GT$..VM$GT$$u20$for$u20$E$GT$7do_work17hb638be443b284890E.3829
000000000003e390 t _ZN4mmtk9scheduler7gc_work136_$LT$impl$u20$mmtk..scheduler..work..GCWork$LT$$LT$E$u20$as$u20$mmtk..scheduler..gc_work..ProcessEdgesWork$GT$..VM$GT$$u20$for$u20$E$GT$7do_work17hc6a44db454ee3166E
00000000000da510 t _ZN4mmtk9scheduler7gc_work136_$LT$impl$u20$mmtk..scheduler..work..GCWork$LT$$LT$E$u20$as$u20$mmtk..scheduler..gc_work..ProcessEdgesWork$GT$..VM$GT$$u20$for$u20$E$GT$7do_work17hc6a44db454ee3166E.3870
000000000003e5d0 t _ZN4mmtk9scheduler7gc_work136_$LT$impl$u20$mmtk..scheduler..work..GCWork$LT$$LT$E$u20$as$u20$mmtk..scheduler..gc_work..ProcessEdgesWork$GT$..VM$GT$$u20$for$u20$E$GT$7do_work17hcb5ac1e2fba8b803E
00000000000b5030 t _ZN4mmtk9scheduler7gc_work136_$LT$impl$u20$mmtk..scheduler..work..GCWork$LT$$LT$E$u20$as$u20$mmtk..scheduler..gc_work..ProcessEdgesWork$GT$..VM$GT$$u20$for$u20$E$GT$7do_work17hcb5ac1e2fba8b803E.2680
00000000000d89d0 t _ZN4mmtk9scheduler7gc_work136_$LT$impl$u20$mmtk..scheduler..work..GCWork$LT$$LT$E$u20$as$u20$mmtk..scheduler..gc_work..ProcessEdgesWork$GT$..VM$GT$$u20$for$u20$E$GT$7do_work17hcb5ac1e2fba8b803E.3854
000000000003ea90 t _ZN4mmtk9scheduler7gc_work136_$LT$impl$u20$mmtk..scheduler..work..GCWork$LT$$LT$E$u20$as$u20$mmtk..scheduler..gc_work..ProcessEdgesWork$GT$..VM$GT$$u20$for$u20$E$GT$7do_work17hde857952aa9cd92cE
00000000000b3bb0 t _ZN4mmtk9scheduler7gc_work136_$LT$impl$u20$mmtk..scheduler..work..GCWork$LT$$LT$E$u20$as$u20$mmtk..scheduler..gc_work..ProcessEdgesWork$GT$..VM$GT$$u20$for$u20$E$GT$7do_work17hde857952aa9cd92cE.2610
00000000000d6170 t _ZN4mmtk9scheduler7gc_work136_$LT$impl$u20$mmtk..scheduler..work..GCWork$LT$$LT$E$u20$as$u20$mmtk..scheduler..gc_work..ProcessEdgesWork$GT$..VM$GT$$u20$for$u20$E$GT$7do_work17hde857952aa9cd92cE.3833
000000000003f0c0 t _ZN4mmtk9scheduler7gc_work136_$LT$impl$u20$mmtk..scheduler..work..GCWork$LT$$LT$E$u20$as$u20$mmtk..scheduler..gc_work..ProcessEdgesWork$GT$..VM$GT$$u20$for$u20$E$GT$7do_work17he2b05218f84877b5E
00000000000b45c0 t _ZN4mmtk9scheduler7gc_work136_$LT$impl$u20$mmtk..scheduler..work..GCWork$LT$$LT$E$u20$as$u20$mmtk..scheduler..gc_work..ProcessEdgesWork$GT$..VM$GT$$u20$for$u20$E$GT$7do_work17he2b05218f84877b5E.2642
00000000000d78d0 t _ZN4mmtk9scheduler7gc_work136_$LT$impl$u20$mmtk..scheduler..work..GCWork$LT$$LT$E$u20$as$u20$mmtk..scheduler..gc_work..ProcessEdgesWork$GT$..VM$GT$$u20$for$u20$E$GT$7do_work17he2b05218f84877b5E.3845
0000000000026ff0 t _ZN4mmtk9scheduler7gc_work16ProcessEdgesWork5flush17h2452fa2c03821344E
00000000000262b0 t _ZN4mmtk9scheduler7gc_work16ProcessEdgesWork5flush17h4159daf87fc305c4E
0000000000026360 t _ZN4mmtk9scheduler7gc_work16ProcessEdgesWork5flush17h5ea5992a0ba8f7e7E
0000000000026410 t _ZN4mmtk9scheduler7gc_work16ProcessEdgesWork5flush17h704c07b376be5666E
00000000000264c0 t _ZN4mmtk9scheduler7gc_work16ProcessEdgesWork5flush17ha5880198c5ca72b6E
0000000000026570 t _ZN4mmtk9scheduler7gc_work16ProcessEdgesWork5flush17hc29fe9d5ab5476bdE
0000000000026620 t _ZN4mmtk9scheduler7gc_work16ProcessEdgesWork5flush17hcee159ba01b5afafE
00000000000266d0 t _ZN4mmtk9scheduler7gc_work16ProcessEdgesWork5flush17he859ed747e38e990E
0000000000026780 t _ZN4mmtk9scheduler7gc_work16ProcessEdgesWork5flush17he960ca46f005be87E
0000000000026830 t _ZN4mmtk9scheduler7gc_work16ProcessEdgesWork5flush17hfab0c02f181d0dabE
00000000000268e0 t _ZN4mmtk9scheduler7gc_work16ProcessEdgesWork5flush17hfae0394715f50715E
00000000000e2450 t _ZN4mmtk9scheduler9scheduler25GCWorkScheduler$LT$VM$GT$20schedule_common_work17h1042fadacfe902cbE
00000000000e2f20 t _ZN4mmtk9scheduler9scheduler25GCWorkScheduler$LT$VM$GT$20schedule_common_work17h215005ab204c4588E
00000000000e3a10 t _ZN4mmtk9scheduler9scheduler25GCWorkScheduler$LT$VM$GT$20schedule_common_work17h3665a6d9c8210ea0E
00000000000e44f0 t _ZN4mmtk9scheduler9scheduler25GCWorkScheduler$LT$VM$GT$20schedule_common_work17h759bfe38b598225fE
00000000000e5040 t _ZN4mmtk9scheduler9scheduler25GCWorkScheduler$LT$VM$GT$20schedule_common_work17ha1a8a1de9b93d105E
00000000000e5ad0 t _ZN4mmtk9scheduler9scheduler25GCWorkScheduler$LT$VM$GT$20schedule_common_work17haac9f7968613f9e1E
00000000000e6620 t _ZN4mmtk9scheduler9scheduler25GCWorkScheduler$LT$VM$GT$20schedule_common_work17hf1c978cd85fde8e8E
00000000000e8ed0 t _ZN4mmtk9scheduler9scheduler25GCWorkScheduler$LT$VM$GT$21poll_schedulable_work17h6a1ecca532e5dd0aE
00000000000e7160 t _ZN4mmtk9scheduler9scheduler25GCWorkScheduler$LT$VM$GT$22notify_mutators_paused17h29559a6a22234822E
00000000000c33f0 t _ZN4mmtk9scheduler9scheduler25GCWorkScheduler$LT$VM$GT$3new28_$u7b$$u7b$closure$u7d$$u7d$17h64b672f3ed80c95bE
0000000000169e40 t _ZN50_$LT$$BP$mut$u20$T$u20$as$u20$core..fmt..Debug$GT$3fmt17h1dcbe1022f25ad90E
00000000000fa420 t _ZN50_$LT$$RF$mut$u20$T$u20$as$u20$core..fmt..Debug$GT$3fmt17hcfe0fdb95edb0968E
0000000000149f80 t _ZN50_$LT$$RF$mut$u20$T$u20$as$u20$core..fmt..Debug$GT$3fmt17he6161d98bcadde69E
000000000016acf0 t _ZN50_$LT$$RF$mut$u20$W$u20$as$u20$core..fmt..Write$GT$10write_char17h0990074fae5c9206E
0000000000065b40 t _ZN50_$LT$$RF$mut$u20$W$u20$as$u20$core..fmt..Write$GT$10write_char17h139fa13207031fabE
0000000000058c40 t _ZN50_$LT$$RF$mut$u20$W$u20$as$u20$core..fmt..Write$GT$10write_char17h148a7d4c29a9d7ffE
000000000005f110 t _ZN50_$LT$$RF$mut$u20$W$u20$as$u20$core..fmt..Write$GT$10write_char17h25583f5015641b5fE
000000000014d110 t _ZN50_$LT$$RF$mut$u20$W$u20$as$u20$core..fmt..Write$GT$10write_char17h48da4e382e6413afE
000000000014c4c0 t _ZN50_$LT$$RF$mut$u20$W$u20$as$u20$core..fmt..Write$GT$10write_char17h4d53956833b2a8d4E
000000000016c920 t _ZN50_$LT$$RF$mut$u20$W$u20$as$u20$core..fmt..Write$GT$10write_char17h4d809d14e8f97744E
000000000016cdc0 t _ZN50_$LT$$RF$mut$u20$W$u20$as$u20$core..fmt..Write$GT$10write_char17ha79dc7bc03165951E
0000000000052350 t _ZN50_$LT$$RF$mut$u20$W$u20$as$u20$core..fmt..Write$GT$10write_char17haa7481ed2b529f80E
0000000000065cc0 t _ZN50_$LT$$RF$mut$u20$W$u20$as$u20$core..fmt..Write$GT$10write_char17hf48e4564f7a7bbfaE
000000000016c930 t _ZN50_$LT$$RF$mut$u20$W$u20$as$u20$core..fmt..Write$GT$9write_fmt17h0265ef622b778a8fE
0000000000058d20 t _ZN50_$LT$$RF$mut$u20$W$u20$as$u20$core..fmt..Write$GT$9write_fmt17h0b61a67e968a99f1E
0000000000052360 t _ZN50_$LT$$RF$mut$u20$W$u20$as$u20$core..fmt..Write$GT$9write_fmt17h217d7c51a54ffa0fE
0000000000100150 t _ZN50_$LT$$RF$mut$u20$W$u20$as$u20$core..fmt..Write$GT$9write_fmt17h403fb48f57f7ce3fE
000000000016ae10 t _ZN50_$LT$$RF$mut$u20$W$u20$as$u20$core..fmt..Write$GT$9write_fmt17h4c34a6eb40d6c1f9E
000000000014c5b0 t _ZN50_$LT$$RF$mut$u20$W$u20$as$u20$core..fmt..Write$GT$9write_fmt17h609f8f98a3e55d0bE
00000000001340e0 t _ZN50_$LT$$RF$mut$u20$W$u20$as$u20$core..fmt..Write$GT$9write_fmt17h855ccfbdafa184ccE
000000000005f220 t _ZN50_$LT$$RF$mut$u20$W$u20$as$u20$core..fmt..Write$GT$9write_fmt17hace482115278d272E
000000000014d120 t _ZN50_$LT$$RF$mut$u20$W$u20$as$u20$core..fmt..Write$GT$9write_fmt17hb45d7474cb3b0791E
0000000000065cd0 t _ZN50_$LT$$RF$mut$u20$W$u20$as$u20$core..fmt..Write$GT$9write_fmt17hcfcf26f360fcb40bE
0000000000065b50 t _ZN50_$LT$$RF$mut$u20$W$u20$as$u20$core..fmt..Write$GT$9write_fmt17hed03898581e664ccE
000000000016cea0 t _ZN50_$LT$$RF$mut$u20$W$u20$as$u20$core..fmt..Write$GT$9write_fmt17hfc332164578d2793E
000000000005f0a0 t _ZN50_$LT$$RF$mut$u20$W$u20$as$u20$core..fmt..Write$GT$9write_str17h00e98358f2facb48E
000000000016ac80 t _ZN50_$LT$$RF$mut$u20$W$u20$as$u20$core..fmt..Write$GT$9write_str17h04276a8cee5f436eE
0000000000065bd0 t _ZN50_$LT$$RF$mut$u20$W$u20$as$u20$core..fmt..Write$GT$9write_str17h39296d79473eff87E
000000000016c830 t _ZN50_$LT$$RF$mut$u20$W$u20$as$u20$core..fmt..Write$GT$9write_str17h710d4adf5ef6f87aE
000000000014d010 t _ZN50_$LT$$RF$mut$u20$W$u20$as$u20$core..fmt..Write$GT$9write_str17h77a5ded1b509dd2aE
00000000000522e0 t _ZN50_$LT$$RF$mut$u20$W$u20$as$u20$core..fmt..Write$GT$9write_str17h94220ba8d987db0dE
000000000014c480 t _ZN50_$LT$$RF$mut$u20$W$u20$as$u20$core..fmt..Write$GT$9write_str17h94b51194bfcb9641E
0000000000065a50 t _ZN50_$LT$$RF$mut$u20$W$u20$as$u20$core..fmt..Write$GT$9write_str17he3be50c36ecbb11aE
000000000016cdb0 t _ZN50_$LT$$RF$mut$u20$W$u20$as$u20$core..fmt..Write$GT$9write_str17hf46e055c454ff6b2E
0000000000058c30 t _ZN50_$LT$$RF$mut$u20$W$u20$as$u20$core..fmt..Write$GT$9write_str17hff5f3ea09d760b18E
000000000005bfd0 t _ZN53_$LT$core..fmt..Error$u20$as$u20$core..fmt..Debug$GT$3fmt17hebbe778c10b21e0fE
00000000000bd670 t _ZN54_$LT$core..any..TypeId$u20$as$u20$core..hash..Hash$GT$4hash17h4b4a9e78d005b5a3E
000000000016a000 t _ZN55_$LT$std..path..PathBuf$u20$as$u20$core..fmt..Debug$GT$3fmt17hee86d555ae210f8dE
0000000000059f50 t _ZN57_$LT$core..time..Duration$u20$as$u20$core..fmt..Debug$GT$3fmt11fmt_decimal17h4bb8ec14f7d658cbE
000000000005a460 t _ZN57_$LT$core..time..Duration$u20$as$u20$core..fmt..Debug$GT$3fmt11fmt_decimal28_$u7b$$u7b$closure$u7d$$u7d$17h8189dcb69cb8b66dE
0000000000135340 t _ZN58_$LT$alloc..string..String$u20$as$u20$core..fmt..Debug$GT$3fmt17ha004ff6488bfc2afE.6778
000000000016b3c0 t _ZN58_$LT$alloc..string..String$u20$as$u20$core..fmt..Debug$GT$3fmt17ha004ff6488bfc2afE.7379
000000000005ef50 t _ZN58_$LT$alloc..string..String$u20$as$u20$core..fmt..Write$GT$10write_char17hd3efc1050395e32aE
000000000005eef0 t _ZN58_$LT$alloc..string..String$u20$as$u20$core..fmt..Write$GT$9write_str17hb02774f010dd428dE
000000000016b440 t _ZN58_$LT$std..io..error..Error$u20$as$u20$core..fmt..Debug$GT$3fmt17hfd1b5b6db0e779baE
0000000000053530 t _ZN59_$LT$core..fmt..Arguments$u20$as$u20$core..fmt..Display$GT$3fmt17hdd60fc9595a6e62cE
0000000000135870 t _ZN59_$LT$regex_syntax..hir..Hir$u20$as$u20$core..fmt..Debug$GT$3fmt17hdecbef9f545623e0E
000000000015f530 t _ZN5alloc11collections5btree3map21IntoIter$LT$K$C$V$GT$10dying_next17hcbcd7c825e22fa75E
00000000001001e0 t _ZN5alloc11collections5btree3set17BTreeSet$LT$T$GT$6insert17h57f8aca9f124ee9aE
0000000000100b20 t _ZN5alloc11collections9vec_deque21VecDeque$LT$T$C$A$GT$4grow17h8b6d383b03d02696E
00000000001009e0 t _ZN5alloc11collections9vec_deque21VecDeque$LT$T$C$A$GT$4grow17h9a6ea7f5bd31c118E
0000000000052140 t _ZN5alloc3fmt6format17ha0a9edecfbe15488E
0000000000108070 t _ZN5alloc3vec16Vec$LT$T$C$A$GT$16into_boxed_slice17h35accb7de5cd0918E
00000000001080f0 t _ZN5alloc3vec16Vec$LT$T$C$A$GT$16into_boxed_slice17h962d920010030ac2E
0000000000124490 t _ZN5alloc3vec16Vec$LT$T$C$A$GT$4push17hf5d795f77d45c020E
00000000000212a0 t _ZN5alloc3vec16Vec$LT$T$C$A$GT$6insert13assert_failed17h81c6e652fa9a5245E
0000000000021320 t _ZN5alloc3vec16Vec$LT$T$C$A$GT$6remove13assert_failed17hf911187cfbb454efE
0000000000108170 t _ZN5alloc3vec9from_elem17h4ab2aa810b7726f7E
000000000007b1a0 t _ZN5alloc3vec9from_elem17h79654214345806ccE
0000000000140e30 t _ZN5alloc3vec9from_elem17hc4d82a881a5791c6E
000000000007b920 t _ZN5alloc4sync12Arc$LT$T$GT$9drop_slow17h0660a41b36e99a56E
000000000007c1a0 t _ZN5alloc4sync12Arc$LT$T$GT$9drop_slow17h08ab81b9433b974fE
000000000003f580 t _ZN5alloc4sync12Arc$LT$T$GT$9drop_slow17h16bd66a17c2799a6E
000000000007c230 t _ZN5alloc4sync12Arc$LT$T$GT$9drop_slow17h16dc96613274de3dE
000000000007c260 t _ZN5alloc4sync12Arc$LT$T$GT$9drop_slow17h1a4bbb3756af3335E
000000000014d4b0 t _ZN5alloc4sync12Arc$LT$T$GT$9drop_slow17h2d1c0382b7c2b25cE
000000000003f790 t _ZN5alloc4sync12Arc$LT$T$GT$9drop_slow17h31b8d948759fa41dE
000000000007c330 t _ZN5alloc4sync12Arc$LT$T$GT$9drop_slow17h31e2107daac502b1E
000000000003f8d0 t _ZN5alloc4sync12Arc$LT$T$GT$9drop_slow17h3670af77d723dacbE
000000000003f930 t _ZN5alloc4sync12Arc$LT$T$GT$9drop_slow17h376b7e4954de63b5E
000000000003f9a0 t _ZN5alloc4sync12Arc$LT$T$GT$9drop_slow17h3a122c468fd12dfaE
00000000000f6260 t _ZN5alloc4sync12Arc$LT$T$GT$9drop_slow17h416e34765c0a0bb3E
000000000007c210 t _ZN5alloc4sync12Arc$LT$T$GT$9drop_slow17h53f544941465a791E
0000000000110fe0 t _ZN5alloc4sync12Arc$LT$T$GT$9drop_slow17h63e2eff57d5d6240E
000000000003fa00 t _ZN5alloc4sync12Arc$LT$T$GT$9drop_slow17h66129651d1ae0bf8E
000000000003fb30 t _ZN5alloc4sync12Arc$LT$T$GT$9drop_slow17h6634148e81aff5d2E
000000000007c060 t _ZN5alloc4sync12Arc$LT$T$GT$9drop_slow17h6aa26b7f1a36982fE
000000000003fb50 t _ZN5alloc4sync12Arc$LT$T$GT$9drop_slow17h6f94c78904c78590E
0000000000111010 t _ZN5alloc4sync12Arc$LT$T$GT$9drop_slow17h732c2d1a40939340E
000000000003fc20 t _ZN5alloc4sync12Arc$LT$T$GT$9drop_slow17h8f35d94b66934a76E
000000000015f2e0 t _ZN5alloc4sync12Arc$LT$T$GT$9drop_slow17h9f21dd6878441beaE
000000000005ca80 t _ZN5alloc4sync12Arc$LT$T$GT$9drop_slow17ha062794a31b4c798E
000000000005e790 t _ZN5alloc4sync12Arc$LT$T$GT$9drop_slow17hb6864e52bbea94e4E
0000000000111150 t _ZN5alloc4sync12Arc$LT$T$GT$9drop_slow17hbcd27af7c0bf0d3dE
000000000003fc90 t _ZN5alloc4sync12Arc$LT$T$GT$9drop_slow17hc57eee851097488bE
000000000003fd90 t _ZN5alloc4sync12Arc$LT$T$GT$9drop_slow17hdc1b3d5b3efc894dE
000000000003feb0 t _ZN5alloc4sync12Arc$LT$T$GT$9drop_slow17hdfe1f00650824bd7E
000000000016d940 t _ZN5alloc4sync12Arc$LT$T$GT$9drop_slow17he677de7a73b64b86E
000000000003ff00 t _ZN5alloc4sync12Arc$LT$T$GT$9drop_slow17hefa8906480a20b27E
0000000000040030 t _ZN5alloc4sync12Arc$LT$T$GT$9drop_slow17hf47ac4092751e732E
0000000000040140 t _ZN5alloc4sync12Arc$LT$T$GT$9drop_slow17hf47caeec5d7d4ccbE
000000000005edb0 t _ZN5alloc4sync12Arc$LT$T$GT$9drop_slow17hf71364d5e32e7a50E
00000000000402d0 t _ZN5alloc4sync12Arc$LT$T$GT$9drop_slow17hf9f62b2d4af05423E
00000000000403a0 t _ZN5alloc4sync12Arc$LT$T$GT$9drop_slow17hfd4d616b49eabdccE
0000000000021290 t _ZN5alloc5alloc18handle_alloc_error17h0ece3c434a8e0eb4E
0000000000052050 t _ZN5alloc5alloc18handle_alloc_error8rt_error17hab1afb17a5ab60bfE
00000000000611e0 t _ZN5alloc5alloc8box_free17h28c9b0ede1f849f6E
0000000000133bf0 t _ZN5alloc5slice29_$LT$impl$u20$$u5b$T$u5d$$GT$4join17hfa252fbc3f70a91dE
000000000013fce0 t _ZN5alloc5slice4hack6to_vec17h38b62f4b2d45e8a0E
00000000001412d0 t _ZN5alloc5slice64_$LT$impl$u20$alloc..borrow..ToOwned$u20$for$u20$$u5b$T$u5d$$GT$8to_owned17h66bcf3ba748b12b7E
0000000000107c20 t _ZN5alloc5slice64_$LT$impl$u20$alloc..borrow..ToOwned$u20$for$u20$$u5b$T$u5d$$GT$8to_owned17hb49dc9cb418580c0E
0000000000052550 t _ZN5alloc6string6String15from_utf8_lossy17h2d378e3abfe6fb99E
00000000000523b0 t _ZN5alloc6string6String4push17h956c97328fd620f7E
0000000000066090 t _ZN5alloc7raw_vec11finish_grow17h2b9ed83f114a4a47E
0000000000136e90 t _ZN5alloc7raw_vec11finish_grow17h38cfd63bc990dbebE
0000000000052070 t _ZN5alloc7raw_vec11finish_grow17h4219364fc9069aacE
00000000000b9d30 t _ZN5alloc7raw_vec11finish_grow17hcd6855ee54cb9f29E
00000000000f5c10 t _ZN5alloc7raw_vec11finish_grow17hd3d1db61900210eaE
0000000000052010 t _ZN5alloc7raw_vec17capacity_overflow17h50ea6dbeac46bafcE
000000000005d310 t _ZN5alloc7raw_vec19RawVec$LT$T$C$A$GT$16reserve_for_push17h017cffab18db7cf3E
00000000000b9e70 t _ZN5alloc7raw_vec19RawVec$LT$T$C$A$GT$16reserve_for_push17h0777a3e811120c7cE
00000000000f7170 t _ZN5alloc7raw_vec19RawVec$LT$T$C$A$GT$16reserve_for_push17h07d74a13df92f477E
0000000000136fd0 t _ZN5alloc7raw_vec19RawVec$LT$T$C$A$GT$16reserve_for_push17h139ad55a4a81a3f3E
0000000000137080 t _ZN5alloc7raw_vec19RawVec$LT$T$C$A$GT$16reserve_for_push17h144dd9fa2875a172E
000000000014ca10 t _ZN5alloc7raw_vec19RawVec$LT$T$C$A$GT$16reserve_for_push17h14dc258b22f5adf5E
0000000000159430 t _ZN5alloc7raw_vec19RawVec$LT$T$C$A$GT$16reserve_for_push17h189ba23b03288940E
00000000000f7220 t _ZN5alloc7raw_vec19RawVec$LT$T$C$A$GT$16reserve_for_push17h1e934f22d6c2bd68E
0000000000137130 t _ZN5alloc7raw_vec19RawVec$LT$T$C$A$GT$16reserve_for_push17h1efb817206f89baeE
00000000001371e0 t _ZN5alloc7raw_vec19RawVec$LT$T$C$A$GT$16reserve_for_push17h2145bed3f8fcae68E
00000000000f72d0 t _ZN5alloc7raw_vec19RawVec$LT$T$C$A$GT$16reserve_for_push17h2c0673ac3267938eE
000000000015d800 t _ZN5alloc7raw_vec19RawVec$LT$T$C$A$GT$16reserve_for_push17h32af3ad9d03ea5a1E
000000000015ddf0 t _ZN5alloc7raw_vec19RawVec$LT$T$C$A$GT$16reserve_for_push17h332c8f251d0785d5E
00000000000524d0 t _ZN5alloc7raw_vec19RawVec$LT$T$C$A$GT$16reserve_for_push17h4720df072c3ec4b7E
0000000000137290 t _ZN5alloc7raw_vec19RawVec$LT$T$C$A$GT$16reserve_for_push17h4c7f93a55c3b7f25E
000000000015e620 t _ZN5alloc7raw_vec19RawVec$LT$T$C$A$GT$16reserve_for_push17h4ef1b606176e03e4E
00000000000f7380 t _ZN5alloc7raw_vec19RawVec$LT$T$C$A$GT$16reserve_for_push17h525f65169ea186afE
00000000000b9f20 t _ZN5alloc7raw_vec19RawVec$LT$T$C$A$GT$16reserve_for_push17h577eef5605c869cfE
000000000015e300 t _ZN5alloc7raw_vec19RawVec$LT$T$C$A$GT$16reserve_for_push17h5e8db4df5b621bb2E
00000000000b9fd0 t _ZN5alloc7raw_vec19RawVec$LT$T$C$A$GT$16reserve_for_push17h7eb4c25eb7d89620E
00000000000ba080 t _ZN5alloc7raw_vec19RawVec$LT$T$C$A$GT$16reserve_for_push17h8f544d4c3f303c97E
0000000000137340 t _ZN5alloc7raw_vec19RawVec$LT$T$C$A$GT$16reserve_for_push17h9ddbf2e9a0baf301E
00000000000f7420 t _ZN5alloc7raw_vec19RawVec$LT$T$C$A$GT$16reserve_for_push17h9f0562ece1d3086fE
0000000000168200 t _ZN5alloc7raw_vec19RawVec$LT$T$C$A$GT$16reserve_for_push17ha24d2a3ea7104477E
0000000000167a20 t _ZN5alloc7raw_vec19RawVec$LT$T$C$A$GT$16reserve_for_push17ha4f3393fb3a74b27E
0000000000159ed0 t _ZN5alloc7raw_vec19RawVec$LT$T$C$A$GT$16reserve_for_push17ha5a9a0e2efe3210fE
0000000000065f90 t _ZN5alloc7raw_vec19RawVec$LT$T$C$A$GT$16reserve_for_push17hadcc3da7a50641afE
0000000000040e30 t _ZN5alloc7raw_vec19RawVec$LT$T$C$A$GT$16reserve_for_push17hb17d06470c09a3bcE
00000000001373d0 t _ZN5alloc7raw_vec19RawVec$LT$T$C$A$GT$16reserve_for_push17hc327fbeee17b78deE
00000000001678d0 t _ZN5alloc7raw_vec19RawVec$LT$T$C$A$GT$16reserve_for_push17hc39a04a05f259de9E
0000000000169f30 t _ZN5alloc7raw_vec19RawVec$LT$T$C$A$GT$16reserve_for_push17hc457e3e85f810160E
00000000000ba130 t _ZN5alloc7raw_vec19RawVec$LT$T$C$A$GT$16reserve_for_push17hce6c0d93d8062a34E
0000000000169360 t _ZN5alloc7raw_vec19RawVec$LT$T$C$A$GT$16reserve_for_push17hd3531b5c473bd47fE
0000000000137480 t _ZN5alloc7raw_vec19RawVec$LT$T$C$A$GT$16reserve_for_push17hd7c5fe6f475c39c8E
00000000000f74d0 t _ZN5alloc7raw_vec19RawVec$LT$T$C$A$GT$16reserve_for_push17hdd14d7ca626dfcc3E
0000000000137530 t _ZN5alloc7raw_vec19RawVec$LT$T$C$A$GT$16reserve_for_push17hdf80bb93b54c5fe0E
00000000001375c0 t _ZN5alloc7raw_vec19RawVec$LT$T$C$A$GT$16reserve_for_push17he7be55fe4b527ffcE
0000000000137670 t _ZN5alloc7raw_vec19RawVec$LT$T$C$A$GT$16reserve_for_push17hf9b60d50903d1293E
000000000002abd0 t _ZN5alloc7raw_vec19RawVec$LT$T$C$A$GT$7reserve21do_reserve_and_handle17h051ae17e7fe5c386E
000000000002ac80 t _ZN5alloc7raw_vec19RawVec$LT$T$C$A$GT$7reserve21do_reserve_and_handle17h09c9fb9e5f25ed1dE
000000000002ad30 t _ZN5alloc7raw_vec19RawVec$LT$T$C$A$GT$7reserve21do_reserve_and_handle17h1250651bd48b1303E
00000000000297c0 t _ZN5alloc7raw_vec19RawVec$LT$T$C$A$GT$7reserve21do_reserve_and_handle17h1e651f7b84f53272E
000000000002b800 t _ZN5alloc7raw_vec19RawVec$LT$T$C$A$GT$7reserve21do_reserve_and_handle17h29fa5b6c1b0dc86bE
0000000000029860 t _ZN5alloc7raw_vec19RawVec$LT$T$C$A$GT$7reserve21do_reserve_and_handle17h326f1e04b701ee64E
000000000002b9a0 t _ZN5alloc7raw_vec19RawVec$LT$T$C$A$GT$7reserve21do_reserve_and_handle17h3b0840f1db9e7984E
00000000000296d0 t _ZN5alloc7raw_vec19RawVec$LT$T$C$A$GT$7reserve21do_reserve_and_handle17h52b2126c93669ae1E
0000000000026a30 t _ZN5alloc7raw_vec19RawVec$LT$T$C$A$GT$7reserve21do_reserve_and_handle17h5716418c824eb618E
000000000002b8f0 t _ZN5alloc7raw_vec19RawVec$LT$T$C$A$GT$7reserve21do_reserve_and_handle17h609aed68d2eba953E
0000000000026040 t _ZN5alloc7raw_vec19RawVec$LT$T$C$A$GT$7reserve21do_reserve_and_handle17h7cdfcb577cd9dc7eE
00000000000260f0 t _ZN5alloc7raw_vec19RawVec$LT$T$C$A$GT$7reserve21do_reserve_and_handle17h850a58fcaf255282E
0000000000021060 t _ZN5alloc7raw_vec19RawVec$LT$T$C$A$GT$7reserve21do_reserve_and_handle17h99bb567dd6a3eac5E
000000000002adc0 t _ZN5alloc7raw_vec19RawVec$LT$T$C$A$GT$7reserve21do_reserve_and_handle17h9acf35849f29c8edE
0000000000022160 t _ZN5alloc7raw_vec19RawVec$LT$T$C$A$GT$7reserve21do_reserve_and_handle17hb063c643e016f5dfE
000000000002ae50 t _ZN5alloc7raw_vec19RawVec$LT$T$C$A$GT$7reserve21do_reserve_and_handle17hb5281ac6bb3c1580E
0000000000029900 t _ZN5alloc7raw_vec19RawVec$LT$T$C$A$GT$7reserve21do_reserve_and_handle17hb7f20c805dab3bf4E
00000000000261a0 t _ZN5alloc7raw_vec19RawVec$LT$T$C$A$GT$7reserve21do_reserve_and_handle17hb88360317ba427c0E
00000000000299b0 t _ZN5alloc7raw_vec19RawVec$LT$T$C$A$GT$7reserve21do_reserve_and_handle17hc498982b0f9e27ffE
000000000002af00 t _ZN5alloc7raw_vec19RawVec$LT$T$C$A$GT$7reserve21do_reserve_and_handle17hc8bc4e2610dbbbacE
000000000002afb0 t _ZN5alloc7raw_vec19RawVec$LT$T$C$A$GT$7reserve21do_reserve_and_handle17hf7a5e6fe40744c8dE
0000000000166be0 t _ZN5gimli4read4line15FileEntryFormat5parse17h219354b03908d43dE
0000000000166fd0 t _ZN5gimli4read4line15parse_attribute17hb2eb3590ce2f36eeE
000000000015dbc0 t _ZN5gimli4read4line27FileEntry$LT$R$C$Offset$GT$5parse17hda6332ee9bbaec75E
0000000000157e20 t _ZN5gimli4read4unit15parse_attribute17h5ea3c8962738725cE
000000000015ecd0 t _ZN5gimli4read4unit18Attribute$LT$R$GT$11udata_value17hb21b313b9905e361E
0000000000158f80 t _ZN5gimli4read4unit18Attribute$LT$R$GT$5value17h16c5a340af5ec64fE
000000000015ec60 t _ZN5gimli4read4unit18Attribute$LT$R$GT$8u8_value17ha0f8c56cf4990db8E
000000000015ed30 t _ZN5gimli4read4unit18Attribute$LT$R$GT$9u16_value17h3d59687c104a447dE
000000000015e4a0 t _ZN5gimli4read4unit19EntriesRaw$LT$R$GT$17read_abbreviation17hbf4f27e7c6b330b5E
0000000000066210 t _ZN5gimli4read4unit20allow_section_offset17hdd61f79118da24b3E
000000000015a050 t _ZN5gimli4read5dwarf14Dwarf$LT$R$GT$11attr_string17h68a4db37f3df72b6E
000000000015eea0 t _ZN5gimli4read6reader6Reader11read_offset17hab4ae2338bb5dac2E
000000000015eb70 t _ZN5gimli4read6reader6Reader12read_address17h445660604d3e2c87E
000000000015eda0 t _ZN5gimli4read6reader6Reader17read_sized_offset17h95406f52e4192439E
000000000015ef10 t _ZN5gimli4read6reader6Reader8read_u6417hd2e2d90f19b5cc95E
0000000000166a10 t _ZN5gimli4read7aranges30ArangeHeader$LT$R$C$Offset$GT$5parse17h84f79f0132c5805cE
00000000001594e0 t _ZN5gimli4read8rnglists20RngListIter$LT$R$GT$4next17h0b8f55d834ee5a11E
000000000010eb60 t _ZN5regex3dfa3Fsm10next_state17h5c72bc8408116997E
000000000010dfb0 t _ZN5regex3dfa3Fsm11clear_cache17he26b53010827aaf0E
000000000010d650 t _ZN5regex3dfa3Fsm12cached_state17h79ffdbb7bae2a75eE
000000000010d3a0 t _ZN5regex3dfa3Fsm15follow_epsilons17ha83efe8653a66feeE
000000000010f4b0 t _ZN5regex3dfa3Fsm19start_flags_reverse17h1bcaf1f1a7e19fd5E
000000000010e4b0 t _ZN5regex3dfa3Fsm9add_state17ha8c5ac7f21cd5e63E
000000000010f5b0 t _ZN5regex3dfa3Fsm9prefix_at17hf1d36255d6950fe4E
000000000010d040 t _ZN5regex3dfa5Cache3new17h97162a126b1841e3E
000000000010cff0 t _ZN5regex3dfa8can_exec17h3b39cbe9280b0ff6E
000000000010de60 t _ZN5regex3dfa8StateMap7get_ptr17h56307c56a2db4c88E
000000000011cff0 t _ZN5regex4exec10ExecNoSync8exec_nfa17h06aed1e14eb44bdfE
0000000000111a10 t _ZN5regex4exec11ExecBuilder5build17h243506aee7ca4e22E
000000000011c090 t _ZN5regex4exec12ExecReadOnly8new_pool17h9681357c1beecf1dE
000000000011ca80 t _ZN5regex4exec12ExecReadOnly8new_pool28_$u7b$$u7b$closure$u7d$$u7d$17h1c670ca9b44746b5E
0000000000104900 t _ZN5regex4pool13Pool$LT$T$GT$3put17hf42e8079f698334cE
000000000002a9c0 t _ZN5regex4pool13Pool$LT$T$GT$8get_slow17h700bda354a43ae47E
00000000001c4378 d _ZN5regex4pool7COUNTER17hcf55dc4e7c1bd2c0E
00000000000000a0 b _ZN5regex4pool9THREAD_ID7__getit5__KEY17h11e26e7c8469f757E
00000000001072e0 t _ZN5regex4prog7Program3new17h12db6a2d868b3528E
0000000000103a00 t _ZN5regex4utf811decode_utf817h1255af403aefbdf8E
00000000000ffd20 t _ZN5regex4utf816decode_last_utf817hc374892f973b2cdaE
000000000010c6f0 t _ZN5regex6pikevm12Fsm$LT$I$GT$3add17h71a062dab3034a17E
000000000010cb90 t _ZN5regex6pikevm12Fsm$LT$I$GT$3add17h9a059c44ee7a49b0E
000000000010c520 t _ZN5regex6pikevm7Threads6resize17h46e55fcb14a9102aE
0000000000100c40 t _ZN5regex6sparse9SparseSet3new17he22378dabf10ece6E
00000000000fe5f0 t _ZN5regex7compile11SuffixCache3get17h7bcca75cfa1659d2E
00000000000fd1e0 t _ZN5regex7compile12ByteClassSet17set_word_boundary17h0628faf018612d4eE
00000000000fe210 t _ZN5regex7compile12CompileClass10c_utf8_seq17hc7fba9b261fcf899E
00000000000f9650 t _ZN5regex7compile8Compiler10fill_split17h33e7bb84eed79cefE
00000000000fd2d0 t _ZN5regex7compile8Compiler12c_empty_look17h04a52abb3da8afc8E
00000000000fddf0 t _ZN5regex7compile8Compiler13c_class_bytes17h10f0428463112f0aE
00000000000f9e00 t _ZN5regex7compile8Compiler14compile_finish17he6689babf23fe8d6E
00000000000fc9a0 t _ZN5regex7compile8Compiler14c_repeat_range17hc9712c4577fa72d3E
00000000000fa8b0 t _ZN5regex7compile8Compiler1c17hc0f888813445243eE
00000000000fc830 t _ZN5regex7compile8Compiler20c_repeat_one_or_more17hef2dc0284a73f657E
00000000000fc340 t _ZN5regex7compile8Compiler20c_repeat_zero_or_one17hb99d92050cc57179E
00000000000fc5d0 t _ZN5regex7compile8Compiler21c_repeat_zero_or_more17hb44f09469ea80a6cE
00000000000fcf30 t _ZN5regex7compile8Compiler26c_repeat_range_min_or_more17h88517282aa096617E
00000000000f7570 t _ZN5regex7compile8Compiler3new17ha463952e0314aec8E
00000000000f9080 t _ZN5regex7compile8Compiler4fill17h9239aa1cc1d22034E
00000000000fd380 t _ZN5regex7compile8Compiler7c_class17h40791a6b4161320fE
00000000000f8140 t _ZN5regex7compile8Compiler7compile17ha404bc21e8eed75fE
00000000000fe710 t _ZN5regex7compile8Compiler8c_concat17h25d9e51895e79406E
00000000000f93d0 t _ZN5regex7compile8Compiler9c_capture17ha959779fa1bd3d0bE
00000000000f8e20 t _ZN5regex7compile8Compiler9c_dotstar17h016ea9c83a255282E
0000000000109fa0 t _ZN5regex7literal3imp15LiteralSearcher3new17h843cde448f1245c3E
000000000010c460 t _ZN5regex7literal3imp15LiteralSearcher8is_empty17h70224cf12811e806E
000000000010a990 t _ZN5regex7literal3imp6Memmem3new17ha54299e07085aa69E
000000000010b1e0 t _ZN5regex7literal3imp7Matcher3new17hf7f644f56f699fbfE
00000000000ff0c0 t _ZN5regex9backtrack16Bounded$LT$I$GT$9backtrack17h67f3822c0e2e64a2E
00000000000ff720 t _ZN5regex9backtrack16Bounded$LT$I$GT$9backtrack17hd91f31e44610ad34E
0000000000060d60 t _ZN60_$LT$alloc..string..String$u20$as$u20$core..fmt..Display$GT$3fmt17h47a5650ea388d1ecE
000000000016ac10 t _ZN60_$LT$alloc..string..String$u20$as$u20$core..fmt..Display$GT$3fmt17h47a5650ea388d1ecE.7354
0000000000057a50 t _ZN60_$LT$core..cell..BorrowError$u20$as$u20$core..fmt..Debug$GT$3fmt17h2d19c1461d3f9b9bE
000000000016a690 t _ZN60_$LT$std..io..error..Error$u20$as$u20$core..fmt..Display$GT$3fmt17h8fa5bb8c0a8f5a6fE
000000000013c9a0 t _ZN61_$LT$regex_syntax..hir..Hir$u20$as$u20$core..clone..Clone$GT$5clone17h13123ec7a35d5c90E
000000000013f8d0 t _ZN61_$LT$regex_syntax..hir..Hir$u20$as$u20$core..clone..Clone$GT$5clone17h13123ec7a35d5c90E.6967
000000000016ca20 t _ZN61_$LT$std..io..stdio..StderrLock$u20$as$u20$std..io..Write$GT$5write17h404ddd6bf49a9330E
000000000016bd70 t _ZN61_$LT$std..io..stdio..StdoutLock$u20$as$u20$std..io..Write$GT$5write17hec964058770de187E
000000000016c2f0 t _ZN61_$LT$std..io..stdio..StdoutLock$u20$as$u20$std..io..Write$GT$9write_all17h0485fa4c76ef33a0E
000000000014e030 t _ZN61_$LT$std..path..Component$u20$as$u20$core..cmp..PartialEq$GT$2eq17h151feaad2e0a674eE
00000000001c4018 d _ZN62_$LT$mmtk..mmtk..VM_MAP$u20$as$u20$core..ops..deref..Deref$GT$5deref11__stability4LAZY17hf402b3a0cc97e09eE
00000000000fa480 t _ZN62_$LT$regex..compile..MaybeInst$u20$as$u20$core..fmt..Debug$GT$3fmt17h1780ed1711836106E
000000000016fd60 t _ZN62_$LT$std..ffi..c_str..NulError$u20$as$u20$core..fmt..Debug$GT$3fmt17heb12bad5d060019cE
000000000016af80 t _ZN62_$LT$std..io..error..ErrorKind$u20$as$u20$core..fmt..Debug$GT$3fmt17h8aaa889ba83e1efcE
0000000000156850 t _ZN62_$LT$std..path..Components$u20$as$u20$core..cmp..PartialEq$GT$2eq17h7052aba2fd1cfb71E
0000000000041900 t _ZN63_$LT$aho_corasick..error..Error$u20$as$u20$core..fmt..Debug$GT$3fmt17hd0518c417006129dE
0000000000057a70 t _ZN63_$LT$core..cell..BorrowMutError$u20$as$u20$core..fmt..Debug$GT$3fmt17h434b0324901e9f58E
0000000000066360 t _ZN63_$LT$log..LevelFilter$u20$as$u20$core..str..traits..FromStr$GT$8from_str17h4e66e93a721244c1E
00000000001c4410 b _ZN63_$LT$mmtk..mmtk..MMAPPER$u20$as$u20$core..ops..deref..Deref$GT$5deref11__stability4LAZY17ha387bfd1e8ae1432E
00000000000f62b0 t _ZN63_$LT$once_cell..imp..Guard$u20$as$u20$core..ops..drop..Drop$GT$4drop17hf0392263d2738958E
0000000000104090 t _ZN63_$LT$regex..input..ByteInput$u20$as$u20$regex..input..Input$GT$14is_empty_match17hc572a4e6a97ea2aaE
00000000001044d0 t _ZN63_$LT$regex..input..ByteInput$u20$as$u20$regex..input..Input$GT$9prefix_at17hf10b08541d757bbbE
0000000000103b50 t _ZN63_$LT$regex..input..CharInput$u20$as$u20$regex..input..Input$GT$14is_empty_match17h90e4d0bfd9e5ad6fE
0000000000103e10 t _ZN63_$LT$regex..input..CharInput$u20$as$u20$regex..input..Input$GT$9prefix_at17h880f01723575d87cE
000000000016fe50 t _ZN63_$LT$std..sync..mpsc..RecvError$u20$as$u20$core..fmt..Debug$GT$3fmt17ha49c09b40c82e97bE
000000000016fe70 t _ZN63_$LT$std..time..SystemTimeError$u20$as$u20$core..fmt..Debug$GT$3fmt17hde43d0c76b3be918E
00000000000656b0 t _ZN64_$LT$alloc..rc..Rc$LT$T$GT$$u20$as$u20$core..ops..drop..Drop$GT$4drop17h62ab30e6366ca953E
0000000000052ae0 t _ZN64_$LT$atomic_refcell..BorrowError$u20$as$u20$core..fmt..Debug$GT$3fmt17ha61eeb0ee77be793E
000000000005bff0 t _ZN64_$LT$core..str..error..Utf8Error$u20$as$u20$core..fmt..Debug$GT$3fmt17h7cd4316d544aeac4E
000000000012c940 t _ZN64_$LT$regex_syntax..ast..Ast$u20$as$u20$core..ops..drop..Drop$GT$4drop17hb4ef80a882980682E
0000000000134140 t _ZN64_$LT$regex_syntax..hir..Hir$u20$as$u20$core..ops..drop..Drop$GT$4drop17ha3a7a6bf80c992e0E
0000000000146960 t _ZN64_$LT$rustc_demangle..v0..Ident$u20$as$u20$core..fmt..Display$GT$3fmt17h1e673b161c65a466E
0000000000167c10 t _ZN64_$LT$std..path..StripPrefixError$u20$as$u20$core..fmt..Debug$GT$3fmt17h23d52c47b1c7bb7eE
00000000000527b0 t _ZN65_$LT$alloc..string..FromUtf8Error$u20$as$u20$core..fmt..Debug$GT$3fmt17h0570824f6c5f8bc4E
000000000004d130 t _ZN65_$LT$alloc..vec..Vec$LT$T$C$A$GT$$u20$as$u20$core..fmt..Debug$GT$3fmt17h5391aa3e64b5c34cE
000000000007b400 t _ZN65_$LT$alloc..vec..Vec$LT$T$C$A$GT$$u20$as$u20$core..fmt..Debug$GT$3fmt17hfb7b9b6fdcda99cfE
00000000001c5598 b _ZN65_$LT$mmtk_openjdk..BUILDER$u20$as$u20$core..ops..deref..Deref$GT$5deref11__stability4LAZY17hf2a2d3d1e0266c9aE
000000000005e1f0 t _ZN66_$LT$alloc..borrow..Cow$LT$B$GT$$u20$as$u20$core..fmt..Display$GT$3fmt17h585f53e0b8854b92E
00000000001082c0 t _ZN67_$LT$alloc..vec..Vec$LT$T$C$A$GT$$u20$as$u20$core..clone..Clone$GT$5clone17h1cb42c6754bf8706E
0000000000108470 t _ZN67_$LT$alloc..vec..Vec$LT$T$C$A$GT$$u20$as$u20$core..clone..Clone$GT$5clone17h2634411b05448512E
0000000000108780 t _ZN67_$LT$alloc..vec..Vec$LT$T$C$A$GT$$u20$as$u20$core..clone..Clone$GT$5clone17h2a7d3c864ffded8dE
00000000001088d0 t _ZN67_$LT$alloc..vec..Vec$LT$T$C$A$GT$$u20$as$u20$core..clone..Clone$GT$5clone17h2d49d6509ad32214E
0000000000108940 t _ZN67_$LT$alloc..vec..Vec$LT$T$C$A$GT$$u20$as$u20$core..clone..Clone$GT$5clone17h3c434fd67ebc8ba7E
0000000000108af0 t _ZN67_$LT$alloc..vec..Vec$LT$T$C$A$GT$$u20$as$u20$core..clone..Clone$GT$5clone17h3ffe590f77e65dd4E
000000000004cf90 t _ZN67_$LT$alloc..vec..Vec$LT$T$C$A$GT$$u20$as$u20$core..clone..Clone$GT$5clone17hacd16495a681c8cbE
0000000000108b50 t _ZN67_$LT$alloc..vec..Vec$LT$T$C$A$GT$$u20$as$u20$core..clone..Clone$GT$5clone17hc2863e195ed531acE
00000000000c3e30 t _ZN67_$LT$alloc..vec..Vec$LT$T$C$A$GT$$u20$as$u20$core..clone..Clone$GT$5clone17heb7a16fe23b911cbE
0000000000108bd0 t _ZN67_$LT$alloc..vec..Vec$LT$T$C$A$GT$$u20$as$u20$core..clone..Clone$GT$5clone17hee5038d21e9349beE
00000000001c4170 d _ZN67_$LT$mmtk_openjdk..SINGLETON$u20$as$u20$core..ops..deref..Deref$GT$5deref11__stability4LAZY17h17731ae3d64fc0ffE
000000000006ee90 t _ZN67_$LT$mmtk..util..address..Address$u20$as$u20$core..fmt..Display$GT$3fmt17h50d937cf66e7b899E
00000000000f6010 t _ZN68_$LT$$RF$$u5b$u8$u5d$$u20$as$u20$object..read..read_ref..ReadRef$GT$19read_bytes_at_until17h140870ae6c11e40cE
000000000004ac70 t _ZN68_$LT$aho_corasick..prefilter..Packed$u20$as$u20$core..fmt..Debug$GT$3fmt17h48479f8aa2a6e800E
0000000000057e00 t _ZN68_$LT$core..fmt..builders..PadAdapter$u20$as$u20$core..fmt..Write$GT$9write_str17hebf08116be6f6f18E
000000000005ac20 t _ZN68_$LT$core..num..error..ParseIntError$u20$as$u20$core..fmt..Debug$GT$3fmt17h8790770b2e70b065E
000000000006ee30 t _ZN68_$LT$mmtk..util..address..Address$u20$as$u20$core..fmt..LowerHex$GT$3fmt17hb1f708396b551021E
000000000014c610 t _ZN68_$LT$std..thread..local..AccessError$u20$as$u20$core..fmt..Debug$GT$3fmt17hf25cc3ada9b07651E
000000000005c430 t _ZN69_$LT$core..alloc..layout..LayoutError$u20$as$u20$core..fmt..Debug$GT$3fmt17h4d7bef888c26ff32E
000000000012c0b0 t _ZN69_$LT$regex_syntax..ast..ClassSet$u20$as$u20$core..ops..drop..Drop$GT$4drop17h65cdb5b933d2db25E
00000000001c44c0 b _ZN6atomic8fallback9SPINLOCKS17h8316b3c6ffe62669E
0000000000066480 t _ZN6memchr6memchr3x863avx6memchr17hc6b5e1fc2ae356a4E
00000000000227a0 t _ZN6memchr6memchr3x863avx6memchr7matched17h9e742b28b7aa6e74E
0000000000066690 t _ZN6memchr6memchr3x863avx7memchr217h73b9057f81368373E
0000000000022800 t _ZN6memchr6memchr3x863avx7memchr27matched17h84bdc9e98f8e0bb7E
0000000000066840 t _ZN6memchr6memchr3x863avx7memchr317h2967a7b0106eff28E
0000000000022870 t _ZN6memchr6memchr3x863avx7memchr37matched17hb24863142d6aa8eaE
0000000000066a00 t _ZN6memchr6memchr3x864sse26memchr17h68fb62dbadd97144E
0000000000066bf0 t _ZN6memchr6memchr3x864sse27memchr217h512da6da5391c3c8E
0000000000066df0 t _ZN6memchr6memchr3x864sse27memchr317h6209a73268087220E
00000000001c4380 d _ZN6memchr6memchr3x866memchr2FN17h1bbfa42e6dc2f684E
0000000000068270 t _ZN6memchr6memchr3x866memchr6detect17h7932eac45040427fE
00000000001c4388 d _ZN6memchr6memchr3x867memchr22FN17h98a0b4b47f71d583E
00000000000682d0 t _ZN6memchr6memchr3x867memchr26detect17h3981da9587aa4895E
00000000001c4390 d _ZN6memchr6memchr3x867memchr32FN17hf27eb71fc2364631E
0000000000068330 t _ZN6memchr6memchr3x867memchr36detect17h86c3c95bb54c4f9fE
0000000000022900 t _ZN6memchr6memmem11genericsimd7matched17h0475670ed5af30a0E
0000000000068500 t _ZN6memchr6memmem3x863avx3std7Forward9find_impl17hffdae21258f57020E
0000000000067aa0 t _ZN6memchr6memmem6Finder4find17h0c6110868e1f5790E
00000000000672c0 t _ZN6memchr6memmem8Searcher7find_tw17ha5bb51744839908bE
00000000000229f0 t _ZN6memchr6memmem9prefilter11genericsimd7matched17h8ff80b95061ad0e0E
00000000000683a0 t _ZN6memchr6memmem9prefilter3x863avx4find17h6360e1c08f5b995dE
00000000000670f0 t _ZN6memchr6memmem9prefilter3x863sse4find17hc95bfadbc51acbfbE
0000000000022970 t _ZN6memchr6memmem9rabinkarp9is_prefix17hacdd815f308ce6c3E
0000000000064b50 t _ZN70_$LT$alloc..vec..Vec$LT$T$C$A$GT$$u20$as$u20$core..ops..drop..Drop$GT$4drop17h078146e1b397bf1fE
000000000004d0c0 t _ZN70_$LT$alloc..vec..Vec$LT$T$C$A$GT$$u20$as$u20$core..ops..drop..Drop$GT$4drop17h1c97845e64e1437bE
00000000000c3d30 t _ZN70_$LT$alloc..vec..Vec$LT$T$C$A$GT$$u20$as$u20$core..ops..drop..Drop$GT$4drop17h1ece69b86cc67298E
0000000000108c50 t _ZN70_$LT$alloc..vec..Vec$LT$T$C$A$GT$$u20$as$u20$core..ops..drop..Drop$GT$4drop17h2bb699b3a061db6cE
000000000007b280 t _ZN70_$LT$alloc..vec..Vec$LT$T$C$A$GT$$u20$as$u20$core..ops..drop..Drop$GT$4drop17h44d20a83c650fad7E
0000000000108d20 t _ZN70_$LT$alloc..vec..Vec$LT$T$C$A$GT$$u20$as$u20$core..ops..drop..Drop$GT$4drop17h5794b176bfbc20a3E
00000000000c3f70 t _ZN70_$LT$alloc..vec..Vec$LT$T$C$A$GT$$u20$as$u20$core..ops..drop..Drop$GT$4drop17he6c1534c3071737eE
000000000014e750 t _ZN70_$LT$std..sync..once..WaiterQueue$u20$as$u20$core..ops..drop..Drop$GT$4drop17hf43063db4404b0f2E
00000000000582a0 t _ZN71_$LT$core..ops..range..Range$LT$Idx$GT$$u20$as$u20$core..fmt..Debug$GT$3fmt17h5cfc1bbd86c41136E
000000000014c460 t _ZN71_$LT$rustc_demangle..SizeLimitExhausted$u20$as$u20$core..fmt..Debug$GT$3fmt17h38d960a6d2ff127aE
00000000000c49b0 t _ZN71_$LT$std..sync..mpsc..Sender$LT$T$GT$$u20$as$u20$core..clone..Clone$GT$5clone17h849dfb2ae39097a5E
00000000000c4e60 t _ZN72_$LT$std..sync..mpsc..SendError$LT$T$GT$$u20$as$u20$core..fmt..Debug$GT$3fmt17h321b2c1c640d2638E
0000000000057c40 t _ZN73_$LT$core..panic..panic_info..PanicInfo$u20$as$u20$core..fmt..Display$GT$3fmt17he0712cf0d291242fE
000000000004baf0 t _ZN74_$LT$aho_corasick..prefilter..RareBytesOne$u20$as$u20$core..fmt..Debug$GT$3fmt17h32f3b8c61bad233cE
000000000004bd80 t _ZN74_$LT$aho_corasick..prefilter..RareBytesTwo$u20$as$u20$core..fmt..Debug$GT$3fmt17h91c2a1a3d9a2df76E
00000000001c5750 b _ZN74_$LT$mmtk_openjdk..CODE_CACHE_ROOTS$u20$as$u20$core..ops..deref..Deref$GT$5deref11__stability4LAZY17h12b0c6369e97c2b1E
000000000004c420 t _ZN75_$LT$aho_corasick..prefilter..StartBytesOne$u20$as$u20$core..fmt..Debug$GT$3fmt17hd756108482f7b2edE
000000000004c5b0 t _ZN75_$LT$aho_corasick..prefilter..StartBytesTwo$u20$as$u20$core..fmt..Debug$GT$3fmt17h9bf508498d1fb616E
00000000000661d0 t _ZN75_$LT$gimli..read..abbrev..Attributes$u20$as$u20$core..ops..deref..Deref$GT$5deref17h67ab2dbea737c3d2E
000000000007da50 t _ZN75_$LT$mmtk..policy..immix..block..BlockState$u20$as$u20$core..fmt..Debug$GT$3fmt17hee2742ac065533cdE
0000000000137720 t _ZN75_$LT$regex_syntax..hir..translate..HirFrame$u20$as$u20$core..fmt..Debug$GT$3fmt17h14669651ce3e5029E
000000000004c170 t _ZN76_$LT$aho_corasick..prefilter..RareBytesThree$u20$as$u20$core..fmt..Debug$GT$3fmt17he20e5e6698fa1445E
0000000000133b20 t _ZN76_$LT$regex_syntax..unicode..UnicodeWordError$u20$as$u20$core..fmt..Debug$GT$3fmt17h572871496ae67231E
00000000000c4d20 t _ZN76_$LT$std..sync..mpsc..Receiver$LT$T$GT$$u20$as$u20$core..ops..drop..Drop$GT$4drop17h0903d0a93f3c50f3E
00000000000f0b30 t _ZN76_$LT$std..sync..poison..PoisonError$LT$T$GT$$u20$as$u20$core..fmt..Debug$GT$3fmt17h165c9fc6aa7553c7E
00000000000ecdd0 t _ZN76_$LT$std..sync..poison..PoisonError$LT$T$GT$$u20$as$u20$core..fmt..Debug$GT$3fmt17h1caf1934705c0916E
000000000005e220 t _ZN76_$LT$std..sync..poison..PoisonError$LT$T$GT$$u20$as$u20$core..fmt..Debug$GT$3fmt17h4e73dfa0c1697a92E
000000000004c760 t _ZN77_$LT$aho_corasick..prefilter..StartBytesThree$u20$as$u20$core..fmt..Debug$GT$3fmt17h2471a86265e8a72fE
00000000001c54c0 b _ZN78_$LT$mmtk..build_info..MMTK_GIT_VERSION$u20$as$u20$core..ops..deref..Deref$GT$5deref11__stability4LAZY17hada2d79079ed58e5E
0000000000107220 t _ZN79_$LT$alloc..boxed..Box$LT$$u5b$T$u5d$$C$A$GT$$u20$as$u20$core..clone..Clone$GT$5clone17h8cd6df77cdfd9a34E
0000000000130660 t _ZN79_$LT$alloc..vec..drain..Drain$LT$T$C$A$GT$$u20$as$u20$core..ops..drop..Drop$GT$4drop17h473333aaad45cceaE
0000000000130af0 t _ZN79_$LT$alloc..vec..drain..Drain$LT$T$C$A$GT$$u20$as$u20$core..ops..drop..Drop$GT$4drop17h8b414c765e119984E
000000000009e3a0 t _ZN79_$LT$alloc..vec..drain..Drain$LT$T$C$A$GT$$u20$as$u20$core..ops..drop..Drop$GT$4drop17h9ddbda2c40f15da4E
00000000001310b0 t _ZN79_$LT$alloc..vec..drain..Drain$LT$T$C$A$GT$$u20$as$u20$core..ops..drop..Drop$GT$4drop17he55d18e2ff09abc4E
00000000000f3b60 t _ZN79_$LT$hashbrown..raw..RawTable$LT$T$C$A$GT$$u20$as$u20$core..ops..drop..Drop$GT$4drop17h13cfe175d4d9e4a2E
00000000000f3ca0 t _ZN79_$LT$hashbrown..raw..RawTable$LT$T$C$A$GT$$u20$as$u20$core..ops..drop..Drop$GT$4drop17h1723f10e23f3805aE
00000000000f3ce0 t _ZN79_$LT$hashbrown..raw..RawTable$LT$T$C$A$GT$$u20$as$u20$core..ops..drop..Drop$GT$4drop17h1b659bf48c8ea341E
000000000006bb00 t _ZN79_$LT$hashbrown..raw..RawTable$LT$T$C$A$GT$$u20$as$u20$core..ops..drop..Drop$GT$4drop17h33c9d9863bcc790cE
000000000006bc20 t _ZN79_$LT$hashbrown..raw..RawTable$LT$T$C$A$GT$$u20$as$u20$core..ops..drop..Drop$GT$4drop17h567a70d2a3ad941bE
00000000000f3e50 t _ZN79_$LT$hashbrown..raw..RawTable$LT$T$C$A$GT$$u20$as$u20$core..ops..drop..Drop$GT$4drop17h81888c3ff7e66796E
000000000006bd40 t _ZN79_$LT$hashbrown..raw..RawTable$LT$T$C$A$GT$$u20$as$u20$core..ops..drop..Drop$GT$4drop17h84b75a95fbb4b1c6E
00000000000fee80 t _ZN79_$LT$hashbrown..raw..RawTable$LT$T$C$A$GT$$u20$as$u20$core..ops..drop..Drop$GT$4drop17ha593d2418f5a82c5E
000000000006bd80 t _ZN79_$LT$hashbrown..raw..RawTable$LT$T$C$A$GT$$u20$as$u20$core..ops..drop..Drop$GT$4drop17hc17e34ec4f3e482eE
00000000000f40b0 t _ZN79_$LT$hashbrown..raw..RawTable$LT$T$C$A$GT$$u20$as$u20$core..ops..drop..Drop$GT$4drop17hc3a90bd882af8c53E
00000000000f40f0 t _ZN79_$LT$hashbrown..raw..RawTable$LT$T$C$A$GT$$u20$as$u20$core..ops..drop..Drop$GT$4drop17hd98a5cdbf86a001dE
00000000000f4230 t _ZN79_$LT$hashbrown..raw..RawTable$LT$T$C$A$GT$$u20$as$u20$core..ops..drop..Drop$GT$4drop17hd98b22a9846d933cE
00000000000fefa0 t _ZN79_$LT$hashbrown..raw..RawTable$LT$T$C$A$GT$$u20$as$u20$core..ops..drop..Drop$GT$4drop17hfdc3a9cd1902c90bE
000000000006e910 t _ZN79_$LT$mmtk..policy..space..EmptySpaceSFT$u20$as$u20$mmtk..policy..space..SFT$GT$10is_movable17hb32828a2b36efd27E
000000000006eb30 t _ZN79_$LT$mmtk..policy..space..EmptySpaceSFT$u20$as$u20$mmtk..policy..space..SFT$GT$11is_in_space17hfe0517d26baa5799E
000000000006e980 t _ZN79_$LT$mmtk..policy..space..EmptySpaceSFT$u20$as$u20$mmtk..policy..space..SFT$GT$16sft_trace_object17h873df1dd2ee35ef5E
000000000006e920 t _ZN79_$LT$mmtk..policy..space..EmptySpaceSFT$u20$as$u20$mmtk..policy..space..SFT$GT$26initialize_object_metadata17hcec1a3747d72f1a3E
000000000006e890 t _ZN79_$LT$mmtk..policy..space..EmptySpaceSFT$u20$as$u20$mmtk..policy..space..SFT$GT$4name17h4eacecdf433adc2bE
000000000006e880 t _ZN79_$LT$mmtk..policy..space..EmptySpaceSFT$u20$as$u20$mmtk..policy..space..SFT$GT$6sft_id17hd9a0b6b9bccb3995E
000000000006e8b0 t _ZN79_$LT$mmtk..policy..space..EmptySpaceSFT$u20$as$u20$mmtk..policy..space..SFT$GT$7is_live17h24c24936c484e9cbE
000000000014d4f0 t _ZN79_$LT$std..backtrace_rs..symbolize..SymbolName$u20$as$u20$core..fmt..Display$GT$3fmt17h6d902fea23a4b43aE
0000000000149530 t _ZN80_$LT$core..str..pattern..StrSearcher$u20$as$u20$core..str..pattern..Searcher$GT$4next17he17f497dc7191a2eE
000000000016c570 t _ZN80_$LT$std..io..Write..write_fmt..Adapter$LT$T$GT$$u20$as$u20$core..fmt..Write$GT$9write_str17h0469fbf51f460f83E
000000000014cd60 t _ZN80_$LT$std..io..Write..write_fmt..Adapter$LT$T$GT$$u20$as$u20$core..fmt..Write$GT$9write_str17h077f0bf65d747d5dE
00000000000654d0 t _ZN80_$LT$std..io..Write..write_fmt..Adapter$LT$T$GT$$u20$as$u20$core..fmt..Write$GT$9write_str17h7e3ada10f65302b8E
00000000000655c0 t _ZN80_$LT$std..io..Write..write_fmt..Adapter$LT$T$GT$$u20$as$u20$core..fmt..Write$GT$9write_str17h9532567d43384162E
000000000016cad0 t _ZN80_$LT$std..io..Write..write_fmt..Adapter$LT$T$GT$$u20$as$u20$core..fmt..Write$GT$9write_str17hb50afce44e17b15dE
000000000014dc20 t _ZN80_$LT$std..path..Components$u20$as$u20$core..iter..traits..iterator..Iterator$GT$4next17h7e9d1f050c22c2f2E
0000000000149dd0 t _ZN81_$LT$core..str..iter..Chars$u20$as$u20$core..iter..traits..iterator..Iterator$GT$5count17hd4d9eb395d8218c2E
0000000000132aa0 t _ZN81_$LT$core..str..iter..Lines$u20$as$u20$core..iter..traits..iterator..Iterator$GT$4next17hbc0e07b34173771aE
0000000000145330 t _ZN81_$LT$core..str..pattern..CharSearcher$u20$as$u20$core..str..pattern..Searcher$GT$10next_match17h8531641b0f8235ffE
0000000000064d00 t _ZN81_$LT$env_logger..fmt..humantime..imp..Timestamp$u20$as$u20$core..fmt..Display$GT$3fmt17hf3290318c1464409E
00000000000723d0 t _ZN81_$LT$mmtk..plan..barriers..NoBarrier$u20$as$u20$mmtk..plan..barriers..Barrier$GT$18post_write_barrier17h605cdfa689a4c9c6E
00000000000723c0 t _ZN81_$LT$mmtk..plan..barriers..NoBarrier$u20$as$u20$mmtk..plan..barriers..Barrier$GT$5flush17h6d723832c2855481E
000000000005e270 t _ZN81_$LT$std..collections..hash..map..DefaultHasher$u20$as$u20$core..hash..Hasher$GT$5write17ha32f424f25266ef5E
000000000005f300 t _ZN82_$LT$hashbrown..raw..RawIntoIter$LT$T$C$A$GT$$u20$as$u20$core..ops..drop..Drop$GT$4drop17h4a1c6396dffa0f86E
000000000006bea0 t _ZN82_$LT$hashbrown..raw..RawIntoIter$LT$T$C$A$GT$$u20$as$u20$core..ops..drop..Drop$GT$4drop17h8c0eedd5062cdc60E
000000000006bfb0 t _ZN82_$LT$hashbrown..raw..RawIntoIter$LT$T$C$A$GT$$u20$as$u20$core..ops..drop..Drop$GT$4drop17hb4837ab02f967defE
00000000001c54f8 b _ZN82_$LT$mmtk..build_info..MMTK_FULL_BUILD_INFO$u20$as$u20$core..ops..deref..Deref$GT$5deref11__stability4LAZY17h6908694b1e50d7ebE
00000000000f5ce0 t _ZN82_$LT$std..io..Lines$LT$B$GT$$u20$as$u20$core..iter..traits..iterator..Iterator$GT$4next17h3105fe928cbe7cd4E
00000000000baf10 t _ZN83_$LT$crossbeam_deque..deque..Injector$LT$T$GT$$u20$as$u20$core..ops..drop..Drop$GT$4drop17haea28da446e5ea0fE
00000000001c54d8 b _ZN85_$LT$mmtk..build_info..MMTK_GIT_VERSION_STRING$u20$as$u20$core..ops..deref..Deref$GT$5deref11__stability4LAZY17h7233cd18c4b8a533E
000000000009c8e0 t _ZN85_$LT$mmtk..plan..nogc..global..NoGC$LT$VM$GT$$u20$as$u20$mmtk..plan..global..Plan$GT$10get_spaces17hd2505e74d843497bE
000000000009c8d0 t _ZN85_$LT$mmtk..plan..nogc..global..NoGC$LT$VM$GT$$u20$as$u20$mmtk..plan..global..Plan$GT$11constraints17ha1d5041200e57df9E
000000000009cbe0 t _ZN85_$LT$mmtk..plan..nogc..global..NoGC$LT$VM$GT$$u20$as$u20$mmtk..plan..global..Plan$GT$14get_used_pages17hbcd99b74048b3b93E
000000000009ca30 t _ZN85_$LT$mmtk..plan..nogc..global..NoGC$LT$VM$GT$$u20$as$u20$mmtk..plan..global..Plan$GT$19collection_required17h4e2c25e44900ab23E
000000000009cb50 t _ZN85_$LT$mmtk..plan..nogc..global..NoGC$LT$VM$GT$$u20$as$u20$mmtk..plan..global..Plan$GT$19schedule_collection17hb66f67fabb5e1ce5E
000000000009caf0 t _ZN85_$LT$mmtk..plan..nogc..global..NoGC$LT$VM$GT$$u20$as$u20$mmtk..plan..global..Plan$GT$21get_allocator_mapping17had5dc0fa7fad826bE
000000000009d0c0 t _ZN85_$LT$mmtk..plan..nogc..global..NoGC$LT$VM$GT$$u20$as$u20$mmtk..plan..global..Plan$GT$30handle_user_collection_request17h1520953e35084ef8E
000000000009caa0 t _ZN85_$LT$mmtk..plan..nogc..global..NoGC$LT$VM$GT$$u20$as$u20$mmtk..plan..global..Plan$GT$4base17hc900910f9278894cE
000000000009cab0 t _ZN85_$LT$mmtk..plan..nogc..global..NoGC$LT$VM$GT$$u20$as$u20$mmtk..plan..global..Plan$GT$7prepare17h4dd24b3cf65e6867E
000000000009cad0 t _ZN85_$LT$mmtk..plan..nogc..global..NoGC$LT$VM$GT$$u20$as$u20$mmtk..plan..global..Plan$GT$7release17hee8d043d1bcd386cE
00000000000ab7f0 t _ZN85_$LT$std..sync..mpsc..mpsc_queue..Queue$LT$T$GT$$u20$as$u20$core..ops..drop..Drop$GT$4drop17h8b9cb8dbf3e56391E
0000000000105270 t _ZN86_$LT$aho_corasick..nfa..NFA$LT$S$GT$$u20$as$u20$aho_corasick..automaton..Automaton$GT$9get_match17h376ca51082a6d88aE
000000000004ba50 t _ZN86_$LT$aho_corasick..prefilter..Packed$u20$as$u20$aho_corasick..prefilter..Prefilter$GT$10heap_bytes17hcee6e690f36df9bbE
000000000004ad40 t _ZN86_$LT$aho_corasick..prefilter..Packed$u20$as$u20$aho_corasick..prefilter..Prefilter$GT$14next_candidate17ha4d45826870f61bcE
000000000004ade0 t _ZN86_$LT$aho_corasick..prefilter..Packed$u20$as$u20$aho_corasick..prefilter..Prefilter$GT$15clone_prefilter17hc0976f433af3904aE
000000000004bad0 t _ZN86_$LT$aho_corasick..prefilter..Packed$u20$as$u20$aho_corasick..prefilter..Prefilter$GT$23reports_false_positives17h2da2ba170ac9e44dE
00000000000fff20 t _ZN86_$LT$alloc..vec..into_iter..IntoIter$LT$T$C$A$GT$$u20$as$u20$core..ops..drop..Drop$GT$4drop17h5ec0370a1be29274E
0000000000100000 t _ZN86_$LT$alloc..vec..into_iter..IntoIter$LT$T$C$A$GT$$u20$as$u20$core..ops..drop..Drop$GT$4drop17h7bd30827479d0d88E
0000000000134010 t _ZN86_$LT$alloc..vec..into_iter..IntoIter$LT$T$C$A$GT$$u20$as$u20$core..ops..drop..Drop$GT$4drop17h7e7e1b477be636abE
00000000000eac00 t _ZN86_$LT$alloc..vec..into_iter..IntoIter$LT$T$C$A$GT$$u20$as$u20$core..ops..drop..Drop$GT$4drop17h81708d29a50727a1E
00000000000eac20 t _ZN86_$LT$alloc..vec..into_iter..IntoIter$LT$T$C$A$GT$$u20$as$u20$core..ops..drop..Drop$GT$4drop17h877bc91fd2d8dbc8E
00000000000eac40 t _ZN86_$LT$alloc..vec..into_iter..IntoIter$LT$T$C$A$GT$$u20$as$u20$core..ops..drop..Drop$GT$4drop17hc80048a49d4d7564E
00000000000bb030 t _ZN86_$LT$crossbeam_epoch..sync..queue..Queue$LT$T$GT$$u20$as$u20$core..ops..drop..Drop$GT$4drop17h8d09215cbdaa90d7E
000000000005d170 t _ZN86_$LT$crossbeam_epoch..sync..queue..Queue$LT$T$GT$$u20$as$u20$core..ops..drop..Drop$GT$4drop17hbbfe7431e804f773E
000000000007c520 t _ZN86_$LT$std..sync..rwlock..RwLockWriteGuard$LT$T$GT$$u20$as$u20$core..ops..drop..Drop$GT$4drop17ha3fd7dbfa8db3bfdE
00000000001c40c8 d _ZN87_$LT$mmtk..plan..generational..ALLOCATOR_MAPPING$u20$as$u20$core..ops..deref..Deref$GT$5deref11__stability4LAZY17hc9cfe958626f3fc7E
00000000000f1890 t _ZN87_$LT$mmtk..plan..immix..global..Immix$LT$VM$GT$$u20$as$u20$mmtk..plan..global..Plan$GT$10get_spaces17hc21b02f70dce70f3E
00000000000f1800 t _ZN87_$LT$mmtk..plan..immix..global..Immix$LT$VM$GT$$u20$as$u20$mmtk..plan..global..Plan$GT$11constraints17hd4d20be9cb0da56bE
00000000000f30d0 t _ZN87_$LT$mmtk..plan..immix..global..Immix$LT$VM$GT$$u20$as$u20$mmtk..plan..global..Plan$GT$14get_used_pages17h760036f500b8d159E
00000000000f1810 t _ZN87_$LT$mmtk..plan..immix..global..Immix$LT$VM$GT$$u20$as$u20$mmtk..plan..global..Plan$GT$18create_copy_config17h03bfa3b35e99e348E
00000000000f17c0 t _ZN87_$LT$mmtk..plan..immix..global..Immix$LT$VM$GT$$u20$as$u20$mmtk..plan..global..Plan$GT$19collection_required17h422163e63ef7460cE
00000000000f1910 t _ZN87_$LT$mmtk..plan..immix..global..Immix$LT$VM$GT$$u20$as$u20$mmtk..plan..global..Plan$GT$19schedule_collection17he61c8d73ffd4ce48E
00000000000f2ee0 t _ZN87_$LT$mmtk..plan..immix..global..Immix$LT$VM$GT$$u20$as$u20$mmtk..plan..global..Plan$GT$21get_allocator_mapping17h6f7da3d9414adfb0E
00000000000f30a0 t _ZN87_$LT$mmtk..plan..immix..global..Immix$LT$VM$GT$$u20$as$u20$mmtk..plan..global..Plan$GT$29get_collection_reserved_pages17h20ae7e02772af6c3E
00000000000f17e0 t _ZN87_$LT$mmtk..plan..immix..global..Immix$LT$VM$GT$$u20$as$u20$mmtk..plan..global..Plan$GT$30last_collection_was_exhaustive17h56fd7b0afb412f89E
00000000000f3270 t _ZN87_$LT$mmtk..plan..immix..global..Immix$LT$VM$GT$$u20$as$u20$mmtk..plan..global..Plan$GT$4base17h81875e39197953acE
00000000000f3280 t _ZN87_$LT$mmtk..plan..immix..global..Immix$LT$VM$GT$$u20$as$u20$mmtk..plan..global..Plan$GT$6common17h9bfae531b473714fE
00000000000f2f40 t _ZN87_$LT$mmtk..plan..immix..global..Immix$LT$VM$GT$$u20$as$u20$mmtk..plan..global..Plan$GT$7prepare17h489b67b8e6275714E
00000000000f3060 t _ZN87_$LT$mmtk..plan..immix..global..Immix$LT$VM$GT$$u20$as$u20$mmtk..plan..global..Plan$GT$7release17h1f1d24c19e80dd93E
00000000001c4128 d _ZN88_$LT$mmtk..plan..nogc..mutator..ALLOCATOR_MAPPING$u20$as$u20$core..ops..deref..Deref$GT$5deref11__stability4LAZY17h66ca8a7c87a973f3E
00000000001c5510 b _ZN89_$LT$mmtk..build_info..MMTK_FULL_BUILD_INFO_STRING$u20$as$u20$core..ops..deref..Deref$GT$5deref11__stability4LAZY17h1ceb5e6989c33d77E
00000000001c40a8 d _ZN89_$LT$mmtk..plan..immix..mutator..ALLOCATOR_MAPPING$u20$as$u20$core..ops..deref..Deref$GT$5deref11__stability4LAZY17h43f44ebdc02e2e45E
00000000000b74b0 t _ZN89_$LT$mmtk..policy..copyspace..CopySpace$LT$VM$GT$$u20$as$u20$mmtk..policy..space..SFT$GT$16sft_trace_object17h83d3bbe5a8401a7cE
00000000000c0210 t _ZN89_$LT$mmtk..policy..copyspace..CopySpace$LT$VM$GT$$u20$as$u20$mmtk..policy..space..SFT$GT$16sft_trace_object17h83d3bbe5a8401a7cE.3176
00000000000dc270 t _ZN89_$LT$mmtk..policy..copyspace..CopySpace$LT$VM$GT$$u20$as$u20$mmtk..policy..space..SFT$GT$16sft_trace_object17h83d3bbe5a8401a7cE.3929
00000000000b7450 t _ZN89_$LT$mmtk..policy..copyspace..CopySpace$LT$VM$GT$$u20$as$u20$mmtk..policy..space..SFT$GT$20get_forwarded_object17ha86d4c1fb2bce4b5E
00000000000c5700 t _ZN89_$LT$mmtk..policy..copyspace..CopySpace$LT$VM$GT$$u20$as$u20$mmtk..policy..space..SFT$GT$26initialize_object_metadata17h0b5b5a3b2b31dbb1E
00000000000c56c0 t _ZN89_$LT$mmtk..policy..copyspace..CopySpace$LT$VM$GT$$u20$as$u20$mmtk..policy..space..SFT$GT$4name17h39f02374909ed644E
00000000000c56f0 t _ZN89_$LT$mmtk..policy..copyspace..CopySpace$LT$VM$GT$$u20$as$u20$mmtk..policy..space..SFT$GT$6sft_id17h89c030a274c37d0cE
00000000000c56d0 t _ZN89_$LT$mmtk..policy..copyspace..CopySpace$LT$VM$GT$$u20$as$u20$mmtk..policy..space..SFT$GT$7is_live17h8836b23d4234fb38E
00000000001c5880 b _ZN8num_cpus5linux12CGROUPS_CPUS17h3bc6050bb8b5a774E
00000000000f44e0 t _ZN8num_cpus5linux12init_cgroups17h0d846f3b8325394dE
00000000001c5888 b _ZN8num_cpus5linux16cgroups_num_cpus4ONCE17hba95d63273a0c2cfE
00000000000f5290 t _ZN8num_cpus5linux6Cgroup5param17h924c972f243cabc9E
00000000000f4360 t _ZN90_$LT$core..str..iter..Split$LT$P$GT$$u20$as$u20$core..iter..traits..iterator..Iterator$GT$4next17h655cc20e2885804eE
000000000015d8b0 t _ZN90_$LT$gimli..read..unit..AttributeValue$LT$R$C$Offset$GT$$u20$as$u20$core..clone..Clone$GT$5clone17h9ce7af64f3119994E
000000000009e080 t _ZN90_$LT$mmtk..scheduler..stat..WorkerLocalStat$LT$C$GT$$u20$as$u20$core..default..Default$GT$7default17hce8821ce9c32e516E
000000000016fc30 t _ZN90_$LT$std..panicking..begin_panic_handler..PanicPayload$u20$as$u20$core..panic..BoxMeUp$GT$3get17hb3a84eb4b0ff4a77E
000000000016fb20 t _ZN90_$LT$std..panicking..begin_panic_handler..PanicPayload$u20$as$u20$core..panic..BoxMeUp$GT$8take_box17ha09025dcaf3a141bE
0000000000101f50 t _ZN91_$LT$aho_corasick..dfa..Standard$LT$S$GT$$u20$as$u20$aho_corasick..automaton..Automaton$GT$9get_match17h8c59053090ad2df3E
00000000000a2050 t _ZN91_$LT$crossbeam_queue..array_queue..ArrayQueue$LT$T$GT$$u20$as$u20$core..ops..drop..Drop$GT$4drop17had6ba1871583dba8E
00000000000bd650 t _ZN91_$LT$std..panicking..begin_panic..PanicPayload$LT$A$GT$$u20$as$u20$core..panic..BoxMeUp$GT$3get17h1db78c3f4e742a4fE
000000000012de40 t _ZN91_$LT$std..panicking..begin_panic..PanicPayload$LT$A$GT$$u20$as$u20$core..panic..BoxMeUp$GT$3get17h82ae58ac3d7f8636E
0000000000065d70 t _ZN91_$LT$std..panicking..begin_panic..PanicPayload$LT$A$GT$$u20$as$u20$core..panic..BoxMeUp$GT$3get17h9f266f853ec389e8E
00000000000670d0 t _ZN91_$LT$std..panicking..begin_panic..PanicPayload$LT$A$GT$$u20$as$u20$core..panic..BoxMeUp$GT$3get17hce809dc36007f71cE
0000000000104d20 t _ZN91_$LT$std..panicking..begin_panic..PanicPayload$LT$A$GT$$u20$as$u20$core..panic..BoxMeUp$GT$3get17hf37b8659a9fab10cE
0000000000170550 t _ZN91_$LT$std..panicking..begin_panic..PanicPayload$LT$A$GT$$u20$as$u20$core..panic..BoxMeUp$GT$3get17hfc9d43ed6c14418fE
00000000000bd5e0 t _ZN91_$LT$std..panicking..begin_panic..PanicPayload$LT$A$GT$$u20$as$u20$core..panic..BoxMeUp$GT$8take_box17h6335b150a76a2868E
000000000012dde0 t _ZN91_$LT$std..panicking..begin_panic..PanicPayload$LT$A$GT$$u20$as$u20$core..panic..BoxMeUp$GT$8take_box17h9edc6cc56610d26cE
0000000000104cc0 t _ZN91_$LT$std..panicking..begin_panic..PanicPayload$LT$A$GT$$u20$as$u20$core..panic..BoxMeUp$GT$8take_box17haa537211f8cbfbcbE
00000000001704f0 t _ZN91_$LT$std..panicking..begin_panic..PanicPayload$LT$A$GT$$u20$as$u20$core..panic..BoxMeUp$GT$8take_box17hb0909444bca5e66dE
0000000000067070 t _ZN91_$LT$std..panicking..begin_panic..PanicPayload$LT$A$GT$$u20$as$u20$core..panic..BoxMeUp$GT$8take_box17hb80adbc7ef4bf099E
0000000000065d10 t _ZN91_$LT$std..panicking..begin_panic..PanicPayload$LT$A$GT$$u20$as$u20$core..panic..BoxMeUp$GT$8take_box17he84e7d0534a9cdaeE
000000000016dea0 t _ZN91_$LT$std..sys_common..backtrace.._print..DisplayBacktrace$u20$as$u20$core..fmt..Display$GT$3fmt17h3e2b509ce2ce6007E
000000000004bca0 t _ZN92_$LT$aho_corasick..prefilter..RareBytesOne$u20$as$u20$aho_corasick..prefilter..Prefilter$GT$10heap_bytes17h1ea54d2a58d47c26E
000000000004bbd0 t _ZN92_$LT$aho_corasick..prefilter..RareBytesOne$u20$as$u20$aho_corasick..prefilter..Prefilter$GT$14next_candidate17h6b78c9db21c660d5E
000000000004bc60 t _ZN92_$LT$aho_corasick..prefilter..RareBytesOne$u20$as$u20$aho_corasick..prefilter..Prefilter$GT$15clone_prefilter17haebfc10f0f906945E
000000000004bcc0 t _ZN92_$LT$aho_corasick..prefilter..RareBytesOne$u20$as$u20$aho_corasick..prefilter..Prefilter$GT$28looks_for_non_start_of_match17he6992cc36f2e23a5E
000000000004be90 t _ZN92_$LT$aho_corasick..prefilter..RareBytesTwo$u20$as$u20$aho_corasick..prefilter..Prefilter$GT$14next_candidate17h330ec11a912ae0e3E
000000000004bf60 t _ZN92_$LT$aho_corasick..prefilter..RareBytesTwo$u20$as$u20$aho_corasick..prefilter..Prefilter$GT$15clone_prefilter17h593ec96dc434cd43E
00000000001c5798 b _ZN92_$LT$mmtk_openjdk..active_plan..MUTATOR_ITERATOR_LOCK$u20$as$u20$core..ops..deref..Deref$GT$5deref11__stability4LAZY17h8095d310678cc094E
00000000001c57b0 b _ZN92_$LT$mmtk_openjdk..build_info..BINDING_VERSION_STRING$u20$as$u20$core..ops..deref..Deref$GT$5deref11__stability4LAZY17h5e14de2da255c833E
0000000000141330 t _ZN92_$LT$regex_syntax..utf8..Utf8Sequences$u20$as$u20$core..iter..traits..iterator..Iterator$GT$4next17h6a1d9850bffb47d7E
000000000004c4d0 t _ZN93_$LT$aho_corasick..prefilter..StartBytesOne$u20$as$u20$aho_corasick..prefilter..Prefilter$GT$14next_candidate17heae8d93a07804e8aE
000000000004c550 t _ZN93_$LT$aho_corasick..prefilter..StartBytesOne$u20$as$u20$aho_corasick..prefilter..Prefilter$GT$15clone_prefilter17h010b564c5c9b6b1eE
000000000004c690 t _ZN93_$LT$aho_corasick..prefilter..StartBytesTwo$u20$as$u20$aho_corasick..prefilter..Prefilter$GT$14next_candidate17hbc5d2ab66687d1d0E
000000000004c710 t _ZN93_$LT$aho_corasick..prefilter..StartBytesTwo$u20$as$u20$aho_corasick..prefilter..Prefilter$GT$15clone_prefilter17hcc9df0bea30c22ecE
00000000001c40f8 d _ZN93_$LT$mmtk..plan..marksweep..mutator..ALLOCATOR_MAPPING$u20$as$u20$core..ops..deref..Deref$GT$5deref11__stability4LAZY17ha29d18ae737bd9afE
00000000001c4158 d _ZN93_$LT$mmtk..plan..semispace..mutator..ALLOCATOR_MAPPING$u20$as$u20$core..ops..deref..Deref$GT$5deref11__stability4LAZY17h4c592fd711dfa02dE
000000000006f050 t _ZN93_$LT$mmtk..util..heap..layout..map64..Map64$u20$as$u20$mmtk..util..heap..layout..map..Map$GT$22create_parent_freelist17he9f9ddaedc87c263E
000000000006f280 t _ZN93_$LT$mmtk..util..heap..layout..map64..Map64$u20$as$u20$mmtk..util..heap..layout..map..Map$GT$26get_contiguous_region_size17h11319f91e8c501c1E
000000000006f260 t _ZN93_$LT$mmtk..util..heap..layout..map64..Map64$u20$as$u20$mmtk..util..heap..layout..map..Map$GT$28get_contiguous_region_chunks17h73352e25ab4a1e48E
000000000006f2a0 t _ZN93_$LT$mmtk..util..heap..layout..map64..Map64$u20$as$u20$mmtk..util..heap..layout..map..Map$GT$34get_available_discontiguous_chunks17hdadc6e04de4f9740E
000000000016fd40 t _ZN93_$LT$std..panicking..begin_panic_handler..StrPanicPayload$u20$as$u20$core..panic..BoxMeUp$GT$3get17hce2adb9c0ff64005E
000000000016fcf0 t _ZN93_$LT$std..panicking..begin_panic_handler..StrPanicPayload$u20$as$u20$core..panic..BoxMeUp$GT$8take_box17hd0252d8b3acc86b2E
000000000004c2a0 t _ZN94_$LT$aho_corasick..prefilter..RareBytesThree$u20$as$u20$aho_corasick..prefilter..Prefilter$GT$14next_candidate17hee4db5aa183f6297E
000000000004c380 t _ZN94_$LT$aho_corasick..prefilter..RareBytesThree$u20$as$u20$aho_corasick..prefilter..Prefilter$GT$15clone_prefilter17hc2e9000fdd384b91E
000000000002e190 t _ZN94_$LT$mmtk_openjdk..abi..InstanceKlass$u20$as$u20$mmtk_openjdk..object_scanning..OopIterate$GT$11oop_iterate17h02d2900adda5b7e2E
000000000002e6b0 t _ZN94_$LT$mmtk_openjdk..abi..InstanceKlass$u20$as$u20$mmtk_openjdk..object_scanning..OopIterate$GT$11oop_iterate17h0dd1f29a7e214c90E
000000000002ebd0 t _ZN94_$LT$mmtk_openjdk..abi..InstanceKlass$u20$as$u20$mmtk_openjdk..object_scanning..OopIterate$GT$11oop_iterate17h44bee36fbef1f425E
000000000002f0f0 t _ZN94_$LT$mmtk_openjdk..abi..InstanceKlass$u20$as$u20$mmtk_openjdk..object_scanning..OopIterate$GT$11oop_iterate17h4c1c6109b7ead70eE
000000000002f610 t _ZN94_$LT$mmtk_openjdk..abi..InstanceKlass$u20$as$u20$mmtk_openjdk..object_scanning..OopIterate$GT$11oop_iterate17h5c80037ebd4d733aE
000000000002fb30 t _ZN94_$LT$mmtk_openjdk..abi..InstanceKlass$u20$as$u20$mmtk_openjdk..object_scanning..OopIterate$GT$11oop_iterate17h9036295c3dbb479eE
0000000000030050 t _ZN94_$LT$mmtk_openjdk..abi..InstanceKlass$u20$as$u20$mmtk_openjdk..object_scanning..OopIterate$GT$11oop_iterate17h98f0a5a7e409ab1eE
0000000000030570 t _ZN94_$LT$mmtk_openjdk..abi..InstanceKlass$u20$as$u20$mmtk_openjdk..object_scanning..OopIterate$GT$11oop_iterate17ha77fc1e7c205f02dE
0000000000030a60 t _ZN94_$LT$mmtk_openjdk..abi..InstanceKlass$u20$as$u20$mmtk_openjdk..object_scanning..OopIterate$GT$11oop_iterate17had0847eb71a52862E
0000000000030f80 t _ZN94_$LT$mmtk_openjdk..abi..InstanceKlass$u20$as$u20$mmtk_openjdk..object_scanning..OopIterate$GT$11oop_iterate17hf082d654010c04acE
00000000000314a0 t _ZN94_$LT$mmtk_openjdk..abi..InstanceKlass$u20$as$u20$mmtk_openjdk..object_scanning..OopIterate$GT$11oop_iterate17hfd6aeceeb8e29c22E
000000000004c860 t _ZN95_$LT$aho_corasick..prefilter..StartBytesThree$u20$as$u20$aho_corasick..prefilter..Prefilter$GT$14next_candidate17hc6000e20f441bc31E
000000000004c8e0 t _ZN95_$LT$aho_corasick..prefilter..StartBytesThree$u20$as$u20$aho_corasick..prefilter..Prefilter$GT$15clone_prefilter17h0a8146c863b68ebbE
0000000000104a70 t _ZN95_$LT$alloc..collections..btree..map..BTreeMap$LT$K$C$V$GT$$u20$as$u20$core..ops..drop..Drop$GT$4drop17h34b8291d2d797f36E
0000000000041640 t _ZN95_$LT$alloc..collections..btree..map..BTreeMap$LT$K$C$V$GT$$u20$as$u20$core..ops..drop..Drop$GT$4drop17h3c138576065e4337E
0000000000133e00 t _ZN95_$LT$alloc..string..String$u20$as$u20$core..iter..traits..collect..FromIterator$LT$char$GT$$GT$9from_iter17hc6f18760e7fd7d78E
00000000001c57f0 b _ZN95_$LT$mmtk_openjdk..build_info..MMTK_OPENJDK_FULL_VERSION$u20$as$u20$core..ops..deref..Deref$GT$5deref11__stability4LAZY17hf0736dd8248c5141E
00000000001c40e0 d _ZN95_$LT$mmtk..plan..markcompact..mutator..ALLOCATOR_MAPPING$u20$as$u20$core..ops..deref..Deref$GT$5deref11__stability4LAZY17h0d1e84e6b7741abfE
00000000000adcd0 t _ZN95_$LT$mmtk..plan..marksweep..global..MarkSweep$LT$VM$GT$$u20$as$u20$mmtk..plan..global..Plan$GT$10get_spaces17hcd6a219321e891e9E
00000000000ae970 t _ZN95_$LT$mmtk..plan..marksweep..global..MarkSweep$LT$VM$GT$$u20$as$u20$mmtk..plan..global..Plan$GT$11constraints17h16e12436064c2131E
00000000000ae790 t _ZN95_$LT$mmtk..plan..marksweep..global..MarkSweep$LT$VM$GT$$u20$as$u20$mmtk..plan..global..Plan$GT$14get_used_pages17h2c4647b92a53ada4E
00000000000ae770 t _ZN95_$LT$mmtk..plan..marksweep..global..MarkSweep$LT$VM$GT$$u20$as$u20$mmtk..plan..global..Plan$GT$19collection_required17h2535d99db6d8ea8dE
00000000000adf30 t _ZN95_$LT$mmtk..plan..marksweep..global..MarkSweep$LT$VM$GT$$u20$as$u20$mmtk..plan..global..Plan$GT$19schedule_collection17h652747d7f6cdf525E
00000000000ae5d0 t _ZN95_$LT$mmtk..plan..marksweep..global..MarkSweep$LT$VM$GT$$u20$as$u20$mmtk..plan..global..Plan$GT$21get_allocator_mapping17h43394667a7a791a9E
00000000000ae950 t _ZN95_$LT$mmtk..plan..marksweep..global..MarkSweep$LT$VM$GT$$u20$as$u20$mmtk..plan..global..Plan$GT$4base17h1872b14d12297a64E
00000000000ae960 t _ZN95_$LT$mmtk..plan..marksweep..global..MarkSweep$LT$VM$GT$$u20$as$u20$mmtk..plan..global..Plan$GT$6common17hbc0d9d74400a279fE
00000000000ae630 t _ZN95_$LT$mmtk..plan..marksweep..global..MarkSweep$LT$VM$GT$$u20$as$u20$mmtk..plan..global..Plan$GT$7prepare17he8ae3f9d5353dccfE
00000000000ae740 t _ZN95_$LT$mmtk..plan..marksweep..global..MarkSweep$LT$VM$GT$$u20$as$u20$mmtk..plan..global..Plan$GT$7release17hc6a8d7019fd2e951E
00000000001c4140 d _ZN95_$LT$mmtk..plan..pageprotect..mutator..ALLOCATOR_MAPPING$u20$as$u20$core..ops..deref..Deref$GT$5deref11__stability4LAZY17h53bc1d62357661a0E
00000000000dc370 t _ZN95_$LT$mmtk..plan..semispace..global..SemiSpace$LT$VM$GT$$u20$as$u20$mmtk..plan..global..Plan$GT$10get_spaces17hf5507564eba67ca6E
00000000000dc1e0 t _ZN95_$LT$mmtk..plan..semispace..global..SemiSpace$LT$VM$GT$$u20$as$u20$mmtk..plan..global..Plan$GT$11constraints17h29f4e4674e7f80f7E
00000000000dd3f0 t _ZN95_$LT$mmtk..plan..semispace..global..SemiSpace$LT$VM$GT$$u20$as$u20$mmtk..plan..global..Plan$GT$14get_used_pages17hce77b769ede46251E
00000000000dd150 t _ZN95_$LT$mmtk..plan..semispace..global..SemiSpace$LT$VM$GT$$u20$as$u20$mmtk..plan..global..Plan$GT$14prepare_worker17he3c770eb98583ac6E
00000000000dc1f0 t _ZN95_$LT$mmtk..plan..semispace..global..SemiSpace$LT$VM$GT$$u20$as$u20$mmtk..plan..global..Plan$GT$18create_copy_config17h213c5c8bf09b97bbE
00000000000dd1d0 t _ZN95_$LT$mmtk..plan..semispace..global..SemiSpace$LT$VM$GT$$u20$as$u20$mmtk..plan..global..Plan$GT$19collection_required17hc8e7cf167d53b87fE
00000000000dc430 t _ZN95_$LT$mmtk..plan..semispace..global..SemiSpace$LT$VM$GT$$u20$as$u20$mmtk..plan..global..Plan$GT$19schedule_collection17h686c3fea4bd2285bE
00000000000dcf80 t _ZN95_$LT$mmtk..plan..semispace..global..SemiSpace$LT$VM$GT$$u20$as$u20$mmtk..plan..global..Plan$GT$21get_allocator_mapping17h551ce0b54c327e53E
00000000000dd240 t _ZN95_$LT$mmtk..plan..semispace..global..SemiSpace$LT$VM$GT$$u20$as$u20$mmtk..plan..global..Plan$GT$29get_collection_reserved_pages17hcd2f969611a833f6E
00000000000dd5a0 t _ZN95_$LT$mmtk..plan..semispace..global..SemiSpace$LT$VM$GT$$u20$as$u20$mmtk..plan..global..Plan$GT$4base17h638765f19aeae30aE
00000000000dd5b0 t _ZN95_$LT$mmtk..plan..semispace..global..SemiSpace$LT$VM$GT$$u20$as$u20$mmtk..plan..global..Plan$GT$6common17h6d9604ba26cb74f5E
00000000000dcfe0 t _ZN95_$LT$mmtk..plan..semispace..global..SemiSpace$LT$VM$GT$$u20$as$u20$mmtk..plan..global..Plan$GT$7prepare17h2821eebb4742987cE
00000000000dd180 t _ZN95_$LT$mmtk..plan..semispace..global..SemiSpace$LT$VM$GT$$u20$as$u20$mmtk..plan..global..Plan$GT$7release17h23174d43e03de672E
00000000001c5568 b _ZN95_$LT$mmtk..policy..mallocspace..metadata..CHUNK_MAP_LOCK$u20$as$u20$core..ops..deref..Deref$GT$5deref11__stability4LAZY17hd1ff4f915b794ae7E
00000000001c5530 b _ZN95_$LT$mmtk..policy..mallocspace..metadata..CHUNK_METADATA$u20$as$u20$core..ops..deref..Deref$GT$5deref11__stability4LAZY17he093c1fb612dfe81E
00000000001562c0 t _ZN95_$LT$std..path..Components$u20$as$u20$core..iter..traits..double_ended..DoubleEndedIterator$GT$9next_back17h31f4a46a782ae0fdE
0000000000101fa0 t _ZN96_$LT$aho_corasick..dfa..Premultiplied$LT$S$GT$$u20$as$u20$aho_corasick..automaton..Automaton$GT$9get_match17h5ad51899aa425a0dE
0000000000059d90 t _ZN96_$LT$core..str..lossy..Utf8LossyChunksIter$u20$as$u20$core..iter..traits..iterator..Iterator$GT$4next17h6fa62a8cab492172E
000000000013ff90 t _ZN97_$LT$alloc..vec..Vec$LT$T$C$A$GT$$u20$as$u20$alloc..vec..spec_extend..SpecExtend$LT$T$C$I$GT$$GT$11spec_extend17h9d154d895be02bcdE
00000000001400e0 t _ZN97_$LT$alloc..vec..Vec$LT$T$C$A$GT$$u20$as$u20$alloc..vec..spec_extend..SpecExtend$LT$T$C$I$GT$$GT$11spec_extend17hdcf617574d2f0547E
000000000009c9e0 t _ZN97_$LT$mmtk..policy..immortalspace..ImmortalSpace$LT$VM$GT$$u20$as$u20$mmtk..policy..space..SFT$GT$12is_reachable17haf2cce7b2943f191E
00000000000a4080 t _ZN97_$LT$mmtk..policy..immortalspace..ImmortalSpace$LT$VM$GT$$u20$as$u20$mmtk..policy..space..SFT$GT$12is_reachable17haf2cce7b2943f191E.2270
00000000000b7250 t _ZN97_$LT$mmtk..policy..immortalspace..ImmortalSpace$LT$VM$GT$$u20$as$u20$mmtk..policy..space..SFT$GT$12is_reachable17haf2cce7b2943f191E.2807
000000000009ca20 t _ZN97_$LT$mmtk..policy..immortalspace..ImmortalSpace$LT$VM$GT$$u20$as$u20$mmtk..policy..space..SFT$GT$16sft_trace_object17hd8f00f5358a9ded0E
00000000000be750 t _ZN97_$LT$mmtk..policy..immortalspace..ImmortalSpace$LT$VM$GT$$u20$as$u20$mmtk..policy..space..SFT$GT$26initialize_object_metadata17h1802d812ffc40d3dE
00000000000be720 t _ZN97_$LT$mmtk..policy..immortalspace..ImmortalSpace$LT$VM$GT$$u20$as$u20$mmtk..policy..space..SFT$GT$4name17ha4b7fa747ded68a8E
00000000000be740 t _ZN97_$LT$mmtk..policy..immortalspace..ImmortalSpace$LT$VM$GT$$u20$as$u20$mmtk..policy..space..SFT$GT$6sft_id17h9bf7cd2c81ba6bf9E
00000000000be730 t _ZN97_$LT$mmtk..policy..immortalspace..ImmortalSpace$LT$VM$GT$$u20$as$u20$mmtk..policy..space..SFT$GT$7is_live17hc514556debe92477E
0000000000138030 t _ZN97_$LT$regex_syntax..hir..translate..TranslatorI$u20$as$u20$regex_syntax..ast..visitor..Visitor$GT$10visit_post17h9d5da235069edc37E
000000000007adf0 t _ZN98_$LT$alloc..vec..Vec$LT$T$GT$$u20$as$u20$alloc..vec..spec_from_iter..SpecFromIter$LT$T$C$I$GT$$GT$9from_iter17h14010c65a21cb21dE
000000000013f190 t _ZN98_$LT$alloc..vec..Vec$LT$T$GT$$u20$as$u20$alloc..vec..spec_from_iter..SpecFromIter$LT$T$C$I$GT$$GT$9from_iter17h1a40d1b4f577d1e0E
000000000007af80 t _ZN98_$LT$alloc..vec..Vec$LT$T$GT$$u20$as$u20$alloc..vec..spec_from_iter..SpecFromIter$LT$T$C$I$GT$$GT$9from_iter17h687469020dba3e7eE
000000000013fee0 t _ZN98_$LT$alloc..vec..Vec$LT$T$GT$$u20$as$u20$alloc..vec..spec_from_iter..SpecFromIter$LT$T$C$I$GT$$GT$9from_iter17hac1ec0da41bd6d5fE
00000000000c39e0 t _ZN98_$LT$alloc..vec..Vec$LT$T$GT$$u20$as$u20$alloc..vec..spec_from_iter..SpecFromIter$LT$T$C$I$GT$$GT$9from_iter17hee57717b9c756f12E
00000000000b0480 t _ZN98_$LT$mmtk..policy..immix..immixspace..ImmixSpace$LT$VM$GT$$u20$as$u20$mmtk..policy..space..SFT$GT$16sft_trace_object17hf9848091f253355aE
00000000000b71a0 t _ZN98_$LT$mmtk..policy..immix..immixspace..ImmixSpace$LT$VM$GT$$u20$as$u20$mmtk..policy..space..SFT$GT$16sft_trace_object17hf9848091f253355aE.2800
00000000000b03a0 t _ZN98_$LT$mmtk..policy..immix..immixspace..ImmixSpace$LT$VM$GT$$u20$as$u20$mmtk..policy..space..SFT$GT$4name17hf1fac54ab178fe51E
00000000000b0470 t _ZN98_$LT$mmtk..policy..immix..immixspace..ImmixSpace$LT$VM$GT$$u20$as$u20$mmtk..policy..space..SFT$GT$6sft_id17he8270b38eb7198bbE
00000000000b03c0 t _ZN98_$LT$mmtk..policy..immix..immixspace..ImmixSpace$LT$VM$GT$$u20$as$u20$mmtk..policy..space..SFT$GT$7is_live17hda43d0e62915de05E
00000000000da770 t _ZN99_$LT$mmtk..plan..markcompact..global..MarkCompact$LT$VM$GT$$u20$as$u20$mmtk..plan..global..Plan$GT$10get_spaces17h9db24822d65fbc37E
00000000000da760 t _ZN99_$LT$mmtk..plan..markcompact..global..MarkCompact$LT$VM$GT$$u20$as$u20$mmtk..plan..global..Plan$GT$11constraints17h5bd6195706d55fd0E
00000000000dc010 t _ZN99_$LT$mmtk..plan..markcompact..global..MarkCompact$LT$VM$GT$$u20$as$u20$mmtk..plan..global..Plan$GT$14get_used_pages17he41eedd4f46788beE
00000000000dbff0 t _ZN99_$LT$mmtk..plan..markcompact..global..MarkCompact$LT$VM$GT$$u20$as$u20$mmtk..plan..global..Plan$GT$19collection_required17hd324aee45bdc52f6E
00000000000da9c0 t _ZN99_$LT$mmtk..plan..markcompact..global..MarkCompact$LT$VM$GT$$u20$as$u20$mmtk..plan..global..Plan$GT$19schedule_collection17h83b5c5ef2e603171E
00000000000da960 t _ZN99_$LT$mmtk..plan..markcompact..global..MarkCompact$LT$VM$GT$$u20$as$u20$mmtk..plan..global..Plan$GT$21get_allocator_mapping17hbdbf83c7494276a2E
00000000000da7f0 t _ZN99_$LT$mmtk..plan..markcompact..global..MarkCompact$LT$VM$GT$$u20$as$u20$mmtk..plan..global..Plan$GT$4base17h6a4f78950691c5fdE
00000000000da800 t _ZN99_$LT$mmtk..plan..markcompact..global..MarkCompact$LT$VM$GT$$u20$as$u20$mmtk..plan..global..Plan$GT$6common17h5d842ed92dd55377E
00000000000da810 t _ZN99_$LT$mmtk..plan..markcompact..global..MarkCompact$LT$VM$GT$$u20$as$u20$mmtk..plan..global..Plan$GT$7prepare17hf8529ff13eca4452E
00000000000da930 t _ZN99_$LT$mmtk..plan..markcompact..global..MarkCompact$LT$VM$GT$$u20$as$u20$mmtk..plan..global..Plan$GT$7release17h934be6274b141fe5E
00000000000a40d0 t _ZN99_$LT$mmtk..plan..pageprotect..global..PageProtect$LT$VM$GT$$u20$as$u20$mmtk..plan..global..Plan$GT$10get_spaces17hf44a347002b26004E
00000000000a40c0 t _ZN99_$LT$mmtk..plan..pageprotect..global..PageProtect$LT$VM$GT$$u20$as$u20$mmtk..plan..global..Plan$GT$11constraints17h1f9c09354ceda192E
00000000000a4510 t _ZN99_$LT$mmtk..plan..pageprotect..global..PageProtect$LT$VM$GT$$u20$as$u20$mmtk..plan..global..Plan$GT$14get_used_pages17h35be400d32cad74aE
00000000000a44f0 t _ZN99_$LT$mmtk..plan..pageprotect..global..PageProtect$LT$VM$GT$$u20$as$u20$mmtk..plan..global..Plan$GT$19collection_required17h98b32934300082feE
00000000000a4150 t _ZN99_$LT$mmtk..plan..pageprotect..global..PageProtect$LT$VM$GT$$u20$as$u20$mmtk..plan..global..Plan$GT$19schedule_collection17h55fd60497a5381f1E
00000000000a4230 t _ZN99_$LT$mmtk..plan..pageprotect..global..PageProtect$LT$VM$GT$$u20$as$u20$mmtk..plan..global..Plan$GT$21get_allocator_mapping17h6674dccccd5c6ad5E
00000000000a46b0 t _ZN99_$LT$mmtk..plan..pageprotect..global..PageProtect$LT$VM$GT$$u20$as$u20$mmtk..plan..global..Plan$GT$4base17hc4bd94858ca62c96E
00000000000a46c0 t _ZN99_$LT$mmtk..plan..pageprotect..global..PageProtect$LT$VM$GT$$u20$as$u20$mmtk..plan..global..Plan$GT$6common17he57fb30be6185f59E
00000000000a4290 t _ZN99_$LT$mmtk..plan..pageprotect..global..PageProtect$LT$VM$GT$$u20$as$u20$mmtk..plan..global..Plan$GT$7prepare17hdcb170dd12bc4333E
00000000000a44a0 t _ZN99_$LT$mmtk..plan..pageprotect..global..PageProtect$LT$VM$GT$$u20$as$u20$mmtk..plan..global..Plan$GT$7release17h8aab75fcc4431765E
000000000015b100 t _ZN9addr2line16ResUnit$LT$R$GT$11parse_lines17hb6ebd47ea08c1c3dE
000000000015dea0 t _ZN9addr2line16ResUnit$LT$R$GT$11render_file17h2931b92865d7a91aE
000000000015fd20 t _ZN9addr2line17ResDwarf$LT$R$GT$5parse17hcd4bf40e7dda9c7eE
000000000015e6d0 t _ZN9addr2line8function10name_entry17hee5d138c8b902b14E
000000000015a370 t _ZN9addr2line8function17Function$LT$R$GT$14parse_children17h5992726ed2aa9cc5E
000000000015a210 t _ZN9addr2line8function9name_attr17h56b5d9a1dba12a08E
0000000000040cc0 t _ZN9addr2line9path_push17h8c0af841078e9fd7E
000000000007ab40 t _ZN9hashbrown11rustc_entry62_$LT$impl$u20$hashbrown..map..HashMap$LT$K$C$V$C$S$C$A$GT$$GT$11rustc_entry17hd58409ad5e002592E
0000000000079d90 t _ZN9hashbrown3map16make_insert_hash17h7ac42293b04e4509E
00000000000d3ce0 t _ZN9hashbrown3map16make_insert_hash17hb96f0d4aaaefdec8E
00000000000798c0 t _ZN9hashbrown3map28HashMap$LT$K$C$V$C$S$C$A$GT$12contains_key17h600d15996aa836a3E
00000000000d39b0 t _ZN9hashbrown3map28HashMap$LT$K$C$V$C$S$C$A$GT$6insert17h1ba1083ac80c9734E
00000000000799f0 t _ZN9hashbrown3map28HashMap$LT$K$C$V$C$S$C$A$GT$6insert17h228795cea1ebd0f7E
0000000000079f00 t _ZN9hashbrown3map28HashMap$LT$K$C$V$C$S$C$A$GT$6insert17h2e7e98fde47508f6E
000000000007a250 t _ZN9hashbrown3map28HashMap$LT$K$C$V$C$S$C$A$GT$6insert17h636df49eee0cf80cE
000000000007a810 t _ZN9hashbrown3map28HashMap$LT$K$C$V$C$S$C$A$GT$6insert17hd9565e5addbbcc1fE
000000000005e5e0 t _ZN9hashbrown3map9make_hash17h5f8765afc183acf4E
00000000000d3660 t _ZN9hashbrown3map9make_hash17h75dd6f38c15c3734E
0000000000079430 t _ZN9hashbrown3map9make_hash17h962aed84571c8c16E
0000000000079580 t _ZN9hashbrown3map9make_hash17ha565f7a4fb3d4d3dE
0000000000103890 t _ZN9hashbrown3map9make_hash17hb4db3415d8a32f40E
0000000000079750 t _ZN9hashbrown3map9make_hash17he82cab80ad5e9d2cE
0000000000066240 t _ZN9hashbrown3raw11Fallibility17capacity_overflow17h36f455252b832992E
0000000000066260 t _ZN9hashbrown3raw11Fallibility9alloc_err17h6505330d87716d16E
0000000000027610 t _ZN9hashbrown3raw21RawTable$LT$T$C$A$GT$14reserve_rehash17h141c09ddf96bce24E
0000000000029a60 t _ZN9hashbrown3raw21RawTable$LT$T$C$A$GT$14reserve_rehash17h18646042ee0b53c7E
0000000000028930 t _ZN9hashbrown3raw21RawTable$LT$T$C$A$GT$14reserve_rehash17h2ffd192e72efb38fE
0000000000022a30 t _ZN9hashbrown3raw21RawTable$LT$T$C$A$GT$14reserve_rehash17h73853c7b2fe3a821E
0000000000027c90 t _ZN9hashbrown3raw21RawTable$LT$T$C$A$GT$14reserve_rehash17h73ca7c2b8065c6d3E
0000000000028ff0 t _ZN9hashbrown3raw21RawTable$LT$T$C$A$GT$14reserve_rehash17h7600c68e40c5d75bE
0000000000022210 t _ZN9hashbrown3raw21RawTable$LT$T$C$A$GT$14reserve_rehash17h998524308eeae654E
00000000000282b0 t _ZN9hashbrown3raw21RawTable$LT$T$C$A$GT$14reserve_rehash17hae98d31e6d3fa786E
00000000000242f0 t _ZN9hashbrown3raw21RawTable$LT$T$C$A$GT$14reserve_rehash17hb0dcf2deff4637efE
0000000000023260 t _ZN9hashbrown3raw21RawTable$LT$T$C$A$GT$14reserve_rehash17hb300d54088c5e695E
0000000000023a90 t _ZN9hashbrown3raw21RawTable$LT$T$C$A$GT$14reserve_rehash17hb62097c8762748d1E
0000000000024b00 t _ZN9hashbrown3raw21RawTable$LT$T$C$A$GT$14reserve_rehash17hc4b748a8605db33cE
0000000000025ac0 t _ZN9hashbrown3raw21RawTable$LT$T$C$A$GT$14reserve_rehash17hcd6b75072d21bf94E
000000000002a2b0 t _ZN9hashbrown3raw21RawTable$LT$T$C$A$GT$14reserve_rehash17heafbabc0b0fef4d3E
000000000006b940 t _ZN9hashbrown3raw21RawTable$LT$T$C$A$GT$6insert17h105c273aceb6ec78E
00000000000fece0 t _ZN9hashbrown3raw22RawTableInner$LT$A$GT$14prepare_resize17h779425c6917d43dfE
00000000000f39a0 t _ZN9hashbrown3raw22RawTableInner$LT$A$GT$14prepare_resize17hc5cc8bb992b9cabdE
000000000006b7b0 t _ZN9hashbrown3raw22RawTableInner$LT$A$GT$22fallible_with_capacity17haaac49677b56d51fE
00000000000662d0 t _ZN9humantime4date20format_rfc3339_nanos17hd006cca9ec50a029E
00000000000662b0 t _ZN9humantime4date21format_rfc3339_micros17h90ec296c0b96f2baE
0000000000066290 t _ZN9humantime4date21format_rfc3339_millis17h2d3610cb96ad88ceE
0000000000066270 t _ZN9humantime4date22format_rfc3339_seconds17h27b7f4b4f01de7d9E
0000000000027570 t _ZN9once_cell3imp17OnceCell$LT$T$GT$10initialize17h49c567be246c29e0E
00000000000275c0 t _ZN9once_cell3imp17OnceCell$LT$T$GT$10initialize17hb81e5549ac16a5a1E
00000000000cf8e0 t _ZN9once_cell3imp17OnceCell$LT$T$GT$10initialize28_$u7b$$u7b$closure$u7d$$u7d$17h2c13e404f3b63ce8E
00000000000cfa00 t _ZN9once_cell3imp17OnceCell$LT$T$GT$10initialize28_$u7b$$u7b$closure$u7d$$u7d$17he7946e39018a781dE
00000000000f63a0 t _ZN9once_cell3imp18initialize_or_wait17h4901aa72238746c4E
000000000005d3c0 t _ZN9termcolor13Ansi$LT$W$GT$11write_color17h25a0847f2820fe30E
